	.text
	.file	"llvm-link"
	.globl	__meth                          // -- Begin function __meth
	.p2align	4
	.type	__meth,@function
__meth:                                 // @__meth
	.cfi_startproc
// %bb.0:                               // %"$1"
	stp	x29, x30, [sp, #-80]!           // 16-byte Folded Spill
	str	x25, [sp, #16]                  // 8-byte Folded Spill
	stp	x24, x23, [sp, #32]             // 16-byte Folded Spill
	stp	x22, x21, [sp, #48]             // 16-byte Folded Spill
	stp	x20, x19, [sp, #64]             // 16-byte Folded Spill
	mov	x29, sp
	.cfi_def_cfa w29, 80
	.cfi_offset w19, -8
	.cfi_offset w20, -16
	.cfi_offset w21, -24
	.cfi_offset w22, -32
	.cfi_offset w23, -40
	.cfi_offset w24, -48
	.cfi_offset w25, -64
	.cfi_offset w30, -72
	.cfi_offset w29, -80
	mov	x19, x1
	mov	x20, x0
	ldp	w22, w8, [x0, #8]
	bfi	x22, x8, #32, #32
	ldp	w21, w8, [x22]
	bfi	x21, x8, #32, #32
	tst	x21, #0x6
	b.ne	.LBB0_4
// %bb.1:                               // %"$3"
	tbz	w21, #3, .LBB0_3
// %bb.2:                               // %"$6"
	ldp	w21, w8, [x21]
	bfi	x21, x8, #32, #32
	b	.LBB0_4
.LBB0_3:                                // %"$5"
	mov	x0, x21
	bl	evList
	mov	x21, x0
.LBB0_4:                                // %"$2"
	adrp	x23, env
	ldr	x8, [x23, :lo12:env]
	mov	x9, sp
	sub	x24, x9, #16                    // =16
	mov	sp, x24
	lsr	x10, x21, #32
	stp	w21, w10, [x9, #-16]
	lsr	x10, x8, #32
	stp	w8, w10, [x9, #-8]
	eor	w8, w21, #0x8
	tst	x8, #0xe
	str	x24, [x23, :lo12:env]
	b.ne	.LBB0_9
// %bb.5:                               // %"$8"
	ldurb	w8, [x21, #-8]
	tbz	w8, #3, .LBB0_7
// %bb.6:                               // %"$9"
	mov	x0, x20
	mov	x1, x21
	bl	dbFetch
.LBB0_7:                                // %"$10"
	adrp	x25, ($Ret)
	str	xzr, [x25, :lo12:($Ret)]
	mov	x0, x21
	mov	x1, x19
	bl	method
	mov	x3, x0
	cbz	x0, .LBB0_10
// %bb.8:                               // %"$11"
	ldr	x1, [x25, :lo12:($Ret)]
	ldp	w4, w8, [x22, #8]
	bfi	x4, x8, #32, #32
	mov	x0, x21
	mov	x2, x19
	bl	evMethod
	ldp	w9, w8, [x24, #8]
	bfi	x9, x8, #32, #32
	str	x9, [x23, :lo12:env]
	mov	sp, x29
	ldp	x20, x19, [sp, #64]             // 16-byte Folded Reload
	ldp	x22, x21, [sp, #48]             // 16-byte Folded Reload
	ldp	x24, x23, [sp, #32]             // 16-byte Folded Reload
	ldr	x25, [sp, #16]                  // 8-byte Folded Reload
	ldp	x29, x30, [sp], #80             // 16-byte Folded Reload
	ret
.LBB0_9:                                // %"$7"
	mov	x0, x20
	mov	x1, x21
	bl	symErr
.LBB0_10:                               // %"$12"
	adrp	x2, .L$181
	add	x2, x2, :lo12:.L$181
	mov	x0, x20
	mov	x1, x19
	bl	err
.Lfunc_end0:
	.size	__meth, .Lfunc_end0-__meth
	.cfi_endproc
                                        // -- End function
	.globl	_quote                          // -- Begin function _quote
	.p2align	4
	.type	_quote,@function
_quote:                                 // @_quote
	.cfi_startproc
// %bb.0:                               // %"$1"
	ldp	w0, w8, [x0, #8]
	bfi	x0, x8, #32, #32
	ret
.Lfunc_end1:
	.size	_quote, .Lfunc_end1-_quote
	.cfi_endproc
                                        // -- End function
	.globl	_gc                             // -- Begin function _gc
	.p2align	4
	.type	_gc,@function
_gc:                                    // @_gc
	.cfi_startproc
// %bb.0:                               // %"$1"
	str	x30, [sp, #-48]!                // 8-byte Folded Spill
	stp	x22, x21, [sp, #16]             // 16-byte Folded Spill
	stp	x20, x19, [sp, #32]             // 16-byte Folded Spill
	.cfi_def_cfa_offset 48
	.cfi_offset w19, -8
	.cfi_offset w20, -16
	.cfi_offset w21, -24
	.cfi_offset w22, -32
	.cfi_offset w30, -48
	mov	x20, x0
	ldp	w21, w8, [x0, #8]
	bfi	x21, x8, #32, #32
	ldp	w19, w8, [x21]
	bfi	x19, x8, #32, #32
	tst	x19, #0x6
	b.ne	.LBB2_4
// %bb.1:                               // %"$3"
	tbz	w19, #3, .LBB2_3
// %bb.2:                               // %"$6"
	ldp	w19, w8, [x19]
	bfi	x19, x8, #32, #32
	b	.LBB2_4
.LBB2_3:                                // %"$5"
	mov	x0, x19
	bl	evList
	mov	x19, x0
.LBB2_4:                                // %"$2"
	adrp	x8, SymTab+8
	add	x8, x8, :lo12:SymTab+8
	str	x8, [x8, #368]
	str	x8, [x8, #384]
	cmp	x19, x8
	b.ne	.LBB2_6
// %bb.5:                               // %"$7"
	bl	gc
	b	.LBB2_10
.LBB2_6:                                // %"$8"
	mov	x0, x20
	mov	x1, x19
	bl	xCnt
	lsl	x8, x0, #16
	adrp	x22, ($GcCount)
	str	x8, [x22, :lo12:($GcCount)]
	bl	gc
	ldp	w1, w8, [x21, #8]
	bfi	x1, x8, #32, #32
	tst	x1, #0xf
	b.eq	.LBB2_8
// %bb.7:
	mov	w8, #65536
	b	.LBB2_9
.LBB2_8:                                // %"$11"
	mov	x0, x20
	bl	evCnt
	lsl	x8, x0, #16
.LBB2_9:                                // %"$12"
	str	x8, [x22, :lo12:($GcCount)]
.LBB2_10:                               // %"$9"
	mov	x0, x19
	ldp	x20, x19, [sp, #32]             // 16-byte Folded Reload
	ldp	x22, x21, [sp, #16]             // 16-byte Folded Reload
	ldr	x30, [sp], #48                  // 8-byte Folded Reload
	ret
.Lfunc_end2:
	.size	_gc, .Lfunc_end2-_gc
	.cfi_endproc
                                        // -- End function
	.globl	_format                         // -- Begin function _format
	.p2align	4
	.type	_format,@function
_format:                                // @_format
	.cfi_startproc
// %bb.0:                               // %"$1"
	stp	x29, x30, [sp, #-80]!           // 16-byte Folded Spill
	stp	x26, x25, [sp, #16]             // 16-byte Folded Spill
	stp	x24, x23, [sp, #32]             // 16-byte Folded Spill
	stp	x22, x21, [sp, #48]             // 16-byte Folded Spill
	stp	x20, x19, [sp, #64]             // 16-byte Folded Spill
	mov	x29, sp
	.cfi_def_cfa w29, 80
	.cfi_offset w19, -8
	.cfi_offset w20, -16
	.cfi_offset w21, -24
	.cfi_offset w22, -32
	.cfi_offset w23, -40
	.cfi_offset w24, -48
	.cfi_offset w25, -56
	.cfi_offset w26, -64
	.cfi_offset w30, -72
	.cfi_offset w29, -80
	mov	x21, x0
	ldp	w9, w8, [x0, #8]
	bfi	x9, x8, #32, #32
	ldp	w19, w8, [x9]
	bfi	x19, x8, #32, #32
	ldp	w20, w8, [x9, #8]
	bfi	x20, x8, #32, #32
	tst	x19, #0x6
	b.ne	.LBB3_4
// %bb.1:                               // %"$3"
	tbz	w19, #3, .LBB3_3
// %bb.2:                               // %"$6"
	ldp	w19, w8, [x19]
	bfi	x19, x8, #32, #32
	b	.LBB3_4
.LBB3_3:                                // %"$5"
	mov	x0, x19
	bl	evList
	mov	x19, x0
.LBB3_4:                                // %"$2"
	adrp	x23, env
	ldr	x8, [x23, :lo12:env]
	mov	x9, sp
	sub	x24, x9, #16                    // =16
	mov	sp, x24
	lsr	x10, x19, #32
	stp	w19, w10, [x9, #-16]
	lsr	x10, x8, #32
	stp	w8, w10, [x9, #-8]
	str	x24, [x23, :lo12:env]
	ldp	w1, w8, [x20]
	bfi	x1, x8, #32, #32
	ldp	w22, w25, [x20, #8]
	tst	x1, #0x6
	b.ne	.LBB3_8
// %bb.5:                               // %"$8"
	tbz	w1, #3, .LBB3_7
// %bb.6:                               // %"$11"
	ldp	w1, w8, [x1]
	bfi	x1, x8, #32, #32
	b	.LBB3_8
.LBB3_7:                                // %"$10"
	mov	x0, x1
	bl	evList
	mov	x1, x0
.LBB3_8:                                // %"$7"
	bfi	x22, x25, #32, #32
	adrp	x8, SymTab+8
	add	x8, x8, :lo12:SymTab+8
	cmp	x1, x8
	b.ne	.LBB3_11
// %bb.9:
	mov	x20, xzr
	tst	x22, #0xf
	b.eq	.LBB3_12
.LBB3_10:
	mov	w21, wzr
	mov	w22, #46
	tst	x19, #0x6
	b.ne	.LBB3_19
	b	.LBB3_26
.LBB3_11:                               // %"$13"
	mov	x0, x21
	bl	xCnt
	mov	x20, x0
	tst	x22, #0xf
	b.ne	.LBB3_10
.LBB3_12:                               // %"$15"
	ldp	w1, w8, [x22]
	bfi	x1, x8, #32, #32
	ldp	w25, w26, [x22, #8]
	tst	x1, #0x6
	b.ne	.LBB3_16
// %bb.13:                              // %"$18"
	tbz	w1, #3, .LBB3_15
// %bb.14:                              // %"$21"
	ldp	w1, w8, [x1]
	bfi	x1, x8, #32, #32
	b	.LBB3_16
.LBB3_15:                               // %"$20"
	mov	x0, x1
	bl	evList
	mov	x1, x0
.LBB3_16:                               // %"$17"
	eor	w8, w1, #0x8
	tst	x8, #0xe
	b.ne	.LBB3_34
// %bb.17:                              // %"$23"
	bfi	x25, x26, #32, #32
	mov	x0, x1
	bl	firstByte
	mov	w22, w0
	tst	x25, #0xf
	b.eq	.LBB3_20
// %bb.18:
	mov	w21, wzr
	tst	x19, #0x6
	b.eq	.LBB3_26
.LBB3_19:                               // %"$35"
	mov	x8, sp
	sub	x4, x8, #32                     // =32
	mov	sp, x4
	mov	w9, #4
	stp	w9, wzr, [x8, #-32]
	mov	w9, #2
	mov	x25, x4
	str	w9, [x25, #16]!
	str	wzr, [x25, #4]
	ldr	x9, [x23, :lo12:env]
	lsr	x10, x9, #32
	stp	w9, w10, [x8, #-8]
	str	x25, [x23, :lo12:env]
	mov	x0, x19
	mov	x1, x20
	mov	w2, w22
	mov	w3, w21
	bl	fmtNum
	ldp	w0, w8, [x25]
	bfi	x0, x8, #32, #32
	bl	consStr
	b	.LBB3_33
.LBB3_20:                               // %"$24"
	ldp	w1, w8, [x25]
	bfi	x1, x8, #32, #32
	tst	x1, #0x6
	b.ne	.LBB3_24
// %bb.21:                              // %"$27"
	tbz	w1, #3, .LBB3_23
// %bb.22:                              // %"$30"
	ldp	w1, w8, [x1]
	bfi	x1, x8, #32, #32
	b	.LBB3_24
.LBB3_23:                               // %"$29"
	mov	x0, x1
	bl	evList
	mov	x1, x0
.LBB3_24:                               // %"$26"
	eor	w8, w1, #0x8
	tst	x8, #0xe
	b.ne	.LBB3_34
// %bb.25:                              // %"$32"
	mov	x0, x1
	bl	firstByte
	mov	w21, w0
	tst	x19, #0x6
	b.ne	.LBB3_19
.LBB3_26:                               // %"$34"
	tbz	w19, #3, .LBB3_31
// %bb.27:                              // %"$37"
	ldp	w0, w8, [x19, #-8]
	bfi	x0, x8, #32, #32
	tbnz	w0, #3, .LBB3_32
// %bb.28:                              // %"$41"
	tst	x0, #0x6
	b.ne	.LBB3_30
.LBB3_29:                               // %"$42"
                                        // =>This Inner Loop Header: Depth=1
	ldp	w0, w8, [x0, #8]
	bfi	x0, x8, #32, #32
	tst	x0, #0x6
	b.eq	.LBB3_29
.LBB3_30:                               // %"$43"
	mov	x1, x20
	mov	w2, w22
	mov	w3, w21
	bl	symToNum
	adrp	x8, SymTab+8
	add	x8, x8, :lo12:SymTab+8
	cmp	x0, #0                          // =0
	csel	x0, x8, x0, eq
	b	.LBB3_33
.LBB3_31:                               // %"$36"
	mov	x8, sp
	sub	x1, x8, #32                     // =32
	mov	sp, x1
	mov	w9, #4
	stp	w9, wzr, [x8, #-32]
	mov	w9, #2
	mov	x25, x1
	str	w9, [x25, #16]!
	str	wzr, [x25, #4]
	ldr	x9, [x23, :lo12:env]
	lsr	x10, x9, #32
	stp	w9, w10, [x8, #-8]
	str	x25, [x23, :lo12:env]
	mov	x0, x19
	bl	pack
	ldp	w0, w8, [x25]
	bfi	x0, x8, #32, #32
	mov	x1, x20
	mov	w2, w22
	mov	w3, w21
	bl	symToNum
	cbnz	x0, .LBB3_33
.LBB3_32:                               // %"$47"
	adrp	x0, SymTab+8
	add	x0, x0, :lo12:SymTab+8
.LBB3_33:                               // %"$33"
	ldp	w9, w8, [x24, #8]
	bfi	x9, x8, #32, #32
	str	x9, [x23, :lo12:env]
	mov	sp, x29
	ldp	x20, x19, [sp, #64]             // 16-byte Folded Reload
	ldp	x22, x21, [sp, #48]             // 16-byte Folded Reload
	ldp	x24, x23, [sp, #32]             // 16-byte Folded Reload
	ldp	x26, x25, [sp, #16]             // 16-byte Folded Reload
	ldp	x29, x30, [sp], #80             // 16-byte Folded Reload
	ret
.LBB3_34:                               // %"$22"
	mov	x0, x21
	bl	symErr
.Lfunc_end3:
	.size	_format, .Lfunc_end3-_format
	.cfi_endproc
                                        // -- End function
	.globl	_add                            // -- Begin function _add
	.p2align	4
	.type	_add,@function
_add:                                   // @_add
	.cfi_startproc
// %bb.0:                               // %"$1"
	stp	x29, x30, [sp, #-64]!           // 16-byte Folded Spill
	stp	x24, x23, [sp, #16]             // 16-byte Folded Spill
	stp	x22, x21, [sp, #32]             // 16-byte Folded Spill
	stp	x20, x19, [sp, #48]             // 16-byte Folded Spill
	mov	x29, sp
	.cfi_def_cfa w29, 64
	.cfi_offset w19, -8
	.cfi_offset w20, -16
	.cfi_offset w21, -24
	.cfi_offset w22, -32
	.cfi_offset w23, -40
	.cfi_offset w24, -48
	.cfi_offset w30, -56
	.cfi_offset w29, -64
	mov	x19, x0
	ldp	w20, w8, [x0, #8]
	bfi	x20, x8, #32, #32
	ldp	w1, w8, [x20]
	bfi	x1, x8, #32, #32
	tst	x1, #0x6
	b.ne	.LBB4_4
// %bb.1:                               // %"$3"
	tbz	w1, #3, .LBB4_3
// %bb.2:                               // %"$6"
	ldp	w1, w8, [x1]
	bfi	x1, x8, #32, #32
	b	.LBB4_4
.LBB4_3:                                // %"$5"
	mov	x0, x1
	bl	evList
	mov	x1, x0
.LBB4_4:                                // %"$2"
	adrp	x23, SymTab+8
	add	x23, x23, :lo12:SymTab+8
	cmp	x1, x23
	b.eq	.LBB4_17
// %bb.5:                               // %"$8"
	adrp	x21, env
	ldr	x8, [x21, :lo12:env]
	mov	x9, sp
	sub	x22, x9, #16                    // =16
	mov	sp, x22
	mov	w10, #10
	lsr	x11, x8, #32
	stp	w10, wzr, [x9, #-16]
	stp	w8, w11, [x9, #-8]
	tst	x1, #0x6
	str	x22, [x21, :lo12:env]
	b.eq	.LBB4_18
// %bb.6:                               // %"$11"
	mov	x9, sp
	sub	x24, x9, #16                    // =16
	mov	sp, x24
	lsr	x10, x1, #32
	adrp	x8, env
	add	x8, x8, :lo12:env
	stp	w1, w10, [x9, #-16]
	ldr	x10, [x8]
	lsr	x11, x10, #32
	stp	w10, w11, [x9, #-8]
	mov	x0, x24
.LBB4_7:                                // %"$12"
                                        // =>This Inner Loop Header: Depth=1
	lsr	x9, x0, #32
	stp	w0, w9, [x8]
	ldp	w20, w8, [x20, #8]
	bfi	x20, x8, #32, #32
	tst	x20, #0xf
	b.ne	.LBB4_15
// %bb.8:                               // %"$13"
                                        //   in Loop: Header=BB4_7 Depth=1
	ldp	w1, w8, [x20]
	bfi	x1, x8, #32, #32
	tst	x1, #0x6
	b.ne	.LBB4_11
// %bb.9:                               // %"$17"
                                        //   in Loop: Header=BB4_7 Depth=1
	tbz	w1, #3, .LBB4_14
// %bb.10:                              // %"$20"
                                        //   in Loop: Header=BB4_7 Depth=1
	ldp	w1, w8, [x1]
	bfi	x1, x8, #32, #32
.LBB4_11:                               // %"$16"
                                        //   in Loop: Header=BB4_7 Depth=1
	cmp	x1, x23
	b.eq	.LBB4_16
.LBB4_12:                               // %"$21"
                                        //   in Loop: Header=BB4_7 Depth=1
	tst	x1, #0x6
	b.eq	.LBB4_18
// %bb.13:                              // %"$24"
                                        //   in Loop: Header=BB4_7 Depth=1
	lsr	x8, x1, #32
	stp	w1, w8, [x22]
	ldp	w0, w8, [x24]
	bfi	x0, x8, #32, #32
	bl	adds
	mov	x8, x24
	b	.LBB4_7
.LBB4_14:                               // %"$19"
                                        //   in Loop: Header=BB4_7 Depth=1
	mov	x0, x1
	bl	evList
	mov	x1, x0
	cmp	x1, x23
	b.ne	.LBB4_12
	b	.LBB4_16
.LBB4_15:                               // %"$15"
	ldp	w1, w8, [x24]
	bfi	x1, x8, #32, #32
.LBB4_16:                               // %"$14"
	ldp	w9, w8, [x22, #8]
	bfi	x9, x8, #32, #32
	str	x9, [x21, :lo12:env]
.LBB4_17:                               // %"$9"
	mov	x0, x1
	mov	sp, x29
	ldp	x20, x19, [sp, #48]             // 16-byte Folded Reload
	ldp	x22, x21, [sp, #32]             // 16-byte Folded Reload
	ldp	x24, x23, [sp, #16]             // 16-byte Folded Reload
	ldp	x29, x30, [sp], #64             // 16-byte Folded Reload
	ret
.LBB4_18:                               // %"$10"
	mov	x0, x19
	bl	numErr
.Lfunc_end4:
	.size	_add, .Lfunc_end4-_add
	.cfi_endproc
                                        // -- End function
	.globl	_sub                            // -- Begin function _sub
	.p2align	4
	.type	_sub,@function
_sub:                                   // @_sub
	.cfi_startproc
// %bb.0:                               // %"$1"
	stp	x29, x30, [sp, #-80]!           // 16-byte Folded Spill
	str	x25, [sp, #16]                  // 8-byte Folded Spill
	stp	x24, x23, [sp, #32]             // 16-byte Folded Spill
	stp	x22, x21, [sp, #48]             // 16-byte Folded Spill
	stp	x20, x19, [sp, #64]             // 16-byte Folded Spill
	mov	x29, sp
	.cfi_def_cfa w29, 80
	.cfi_offset w19, -8
	.cfi_offset w20, -16
	.cfi_offset w21, -24
	.cfi_offset w22, -32
	.cfi_offset w23, -40
	.cfi_offset w24, -48
	.cfi_offset w25, -64
	.cfi_offset w30, -72
	.cfi_offset w29, -80
	mov	x19, x0
	ldp	w9, w8, [x0, #8]
	bfi	x9, x8, #32, #32
	ldp	w1, w8, [x9]
	bfi	x1, x8, #32, #32
	ldp	w20, w21, [x9, #8]
	tst	x1, #0x6
	b.ne	.LBB5_4
// %bb.1:                               // %"$3"
	tbz	w1, #3, .LBB5_3
// %bb.2:                               // %"$6"
	ldp	w1, w8, [x1]
	bfi	x1, x8, #32, #32
	b	.LBB5_4
.LBB5_3:                                // %"$5"
	mov	x0, x1
	bl	evList
	mov	x1, x0
.LBB5_4:                                // %"$2"
	adrp	x22, SymTab+8
	add	x22, x22, :lo12:SymTab+8
	cmp	x1, x22
	b.eq	.LBB5_18
// %bb.5:                               // %"$8"
	tst	x1, #0x6
	b.eq	.LBB5_19
// %bb.6:                               // %"$11"
	bfi	x20, x21, #32, #32
	tst	x20, #0xf
	b.eq	.LBB5_8
// %bb.7:                               // %"$12"
	eor	x8, x1, #0x8
	cmp	x1, #2                          // =2
	csel	x1, x1, x8, eq
	b	.LBB5_18
.LBB5_8:                                // %"$13"
	adrp	x21, env
	ldr	x8, [x21, :lo12:env]
	mov	x9, sp
	sub	x23, x9, #16                    // =16
	mov	sp, x23
	mov	w10, #10
	lsr	x11, x8, #32
	stp	w10, wzr, [x9, #-16]
	stp	w8, w11, [x9, #-8]
	str	x23, [x21, :lo12:env]
	mov	x8, sp
	sub	x24, x8, #16                    // =16
	mov	sp, x24
	lsr	x9, x1, #32
	stp	w1, w9, [x8, #-16]
	ldr	x9, [x21, :lo12:env]
	lsr	x10, x9, #32
	stp	w9, w10, [x8, #-8]
	str	x24, [x21, :lo12:env]
.LBB5_9:                                // %"$18"
                                        // =>This Inner Loop Header: Depth=1
	ldp	w1, w8, [x20]
	bfi	x1, x8, #32, #32
	ldp	w20, w25, [x20, #8]
	tst	x1, #0x6
	b.ne	.LBB5_13
// %bb.10:                              // %"$20"
                                        //   in Loop: Header=BB5_9 Depth=1
	tbz	w1, #3, .LBB5_12
// %bb.11:                              // %"$23"
                                        //   in Loop: Header=BB5_9 Depth=1
	ldp	w1, w8, [x1]
	bfi	x1, x8, #32, #32
	b	.LBB5_13
.LBB5_12:                               // %"$22"
                                        //   in Loop: Header=BB5_9 Depth=1
	mov	x0, x1
	bl	evList
	mov	x1, x0
.LBB5_13:                               // %"$19"
                                        //   in Loop: Header=BB5_9 Depth=1
	cmp	x1, x22
	b.eq	.LBB5_17
// %bb.14:                              // %"$24"
                                        //   in Loop: Header=BB5_9 Depth=1
	tst	x1, #0x6
	b.eq	.LBB5_19
// %bb.15:                              // %"$28"
                                        //   in Loop: Header=BB5_9 Depth=1
	bfi	x20, x25, #32, #32
	lsr	x8, x1, #32
	stp	w1, w8, [x23]
	ldp	w0, w8, [x24]
	bfi	x0, x8, #32, #32
	bl	subs
	lsr	x8, x0, #32
	stp	w0, w8, [x24]
	tst	x20, #0xf
	b.eq	.LBB5_9
// %bb.16:                              // %"$30"
	ldp	w1, w8, [x24]
	bfi	x1, x8, #32, #32
.LBB5_17:                               // %"$25"
	ldp	w9, w8, [x23, #8]
	bfi	x9, x8, #32, #32
	str	x9, [x21, :lo12:env]
.LBB5_18:                               // %"$9"
	mov	x0, x1
	mov	sp, x29
	ldp	x20, x19, [sp, #64]             // 16-byte Folded Reload
	ldp	x22, x21, [sp, #48]             // 16-byte Folded Reload
	ldp	x24, x23, [sp, #32]             // 16-byte Folded Reload
	ldr	x25, [sp, #16]                  // 8-byte Folded Reload
	ldp	x29, x30, [sp], #80             // 16-byte Folded Reload
	ret
.LBB5_19:                               // %"$10"
	mov	x0, x19
	bl	numErr
.Lfunc_end5:
	.size	_sub, .Lfunc_end5-_sub
	.cfi_endproc
                                        // -- End function
	.globl	_inc                            // -- Begin function _inc
	.p2align	4
	.type	_inc,@function
_inc:                                   // @_inc
	.cfi_startproc
// %bb.0:                               // %"$1"
	stp	x29, x30, [sp, #-64]!           // 16-byte Folded Spill
	stp	x24, x23, [sp, #16]             // 16-byte Folded Spill
	stp	x22, x21, [sp, #32]             // 16-byte Folded Spill
	stp	x20, x19, [sp, #48]             // 16-byte Folded Spill
	mov	x29, sp
	.cfi_def_cfa w29, 64
	.cfi_offset w19, -8
	.cfi_offset w20, -16
	.cfi_offset w21, -24
	.cfi_offset w22, -32
	.cfi_offset w23, -40
	.cfi_offset w24, -48
	.cfi_offset w30, -56
	.cfi_offset w29, -64
	mov	x20, x0
	ldp	w24, w8, [x0, #8]
	bfi	x24, x8, #32, #32
	ldp	w19, w8, [x24]
	bfi	x19, x8, #32, #32
	tst	x19, #0x6
	b.ne	.LBB6_4
// %bb.1:                               // %"$4"
	tbz	w19, #3, .LBB6_3
// %bb.2:                               // %"$7"
	ldp	w19, w8, [x19]
	bfi	x19, x8, #32, #32
	b	.LBB6_4
.LBB6_3:                                // %"$6"
	mov	x0, x19
	bl	evList
	mov	x19, x0
.LBB6_4:                                // %"$3"
	adrp	x23, SymTab+8
	add	x23, x23, :lo12:SymTab+8
	cmp	x19, x23
	b.eq	.LBB6_28
// %bb.5:                               // %"$8"
	tst	x19, #0x6
	b.eq	.LBB6_7
// %bb.6:                               // %"$11"
	mov	x0, x19
	bl	incs
	mov	x19, x0
	b	.LBB6_28
.LBB6_7:                                // %"$10"
	add	x8, x23, #208                   // =208
	cmp	x8, x19
	ccmp	x19, x23, #0, hs
	b.hs	.LBB6_29
// %bb.8:                               // %"$15"
	adrp	x21, env
	ldr	x8, [x21, :lo12:env]
	mov	x9, sp
	sub	x22, x9, #16                    // =16
	mov	sp, x22
	lsr	x10, x19, #32
	lsr	x11, x8, #32
	stp	w19, w10, [x9, #-16]
	stp	w8, w11, [x9, #-8]
	str	x22, [x21, :lo12:env]
	tbz	w19, #3, .LBB6_10
// %bb.9:                               // %"$17"
	ldurb	w8, [x19, #-8]
	ubfx	w8, w8, #3, #1
	cbnz	w8, .LBB6_11
	b	.LBB6_12
.LBB6_10:
	mov	w8, wzr
	cbz	w8, .LBB6_12
.LBB6_11:                               // %"$18"
	mov	x0, x20
	mov	x1, x19
	bl	dbTouch
.LBB6_12:                               // %"$19"
	ldp	w8, w9, [x24, #8]
	bfi	x8, x9, #32, #32
	tst	x8, #0xf
	b.eq	.LBB6_16
// %bb.13:                              // %"$20"
	ldp	w8, w9, [x19]
	bfi	x8, x9, #32, #32
	cmp	x8, x23
	b.eq	.LBB6_27
// %bb.14:                              // %"$24"
	tst	x8, #0x6
	b.eq	.LBB6_30
// %bb.15:                              // %"$27"
	mov	x0, x8
	bl	incs
	b	.LBB6_26
.LBB6_16:                               // %"$21"
	ldp	w1, w9, [x8]
	bfi	x1, x9, #32, #32
	tst	x1, #0x6
	b.ne	.LBB6_20
// %bb.17:                              // %"$29"
	tbz	w1, #3, .LBB6_19
// %bb.18:                              // %"$32"
	ldp	w1, w8, [x1]
	bfi	x1, x8, #32, #32
	b	.LBB6_20
.LBB6_19:                               // %"$31"
	mov	x0, x1
	bl	evList
	mov	x1, x0
.LBB6_20:                               // %"$28"
	ldr	x8, [x21, :lo12:env]
	mov	x9, sp
	sub	x10, x9, #16                    // =16
	mov	sp, x10
	lsr	x11, x1, #32
	stp	w1, w11, [x9, #-16]
	lsr	x11, x8, #32
	stp	w8, w11, [x9, #-8]
	str	x10, [x21, :lo12:env]
	ldp	w8, w9, [x19]
	bfi	x8, x9, #32, #32
	cmp	x8, x23
	b.eq	.LBB6_27
// %bb.21:                              // %"$34"
	cmp	x1, x23
	b.ne	.LBB6_23
// %bb.22:
	mov	x8, x1
	b	.LBB6_27
.LBB6_23:                               // %"$36"
	tst	x8, #0x6
	b.eq	.LBB6_30
// %bb.24:                              // %"$39"
	tst	x1, #0x6
	b.eq	.LBB6_31
// %bb.25:                              // %"$41"
	mov	x0, x8
	bl	adds
.LBB6_26:                               // %"$22"
	mov	x8, x0
	lsr	x9, x0, #32
	stp	w8, w9, [x19]
.LBB6_27:                               // %"$22"
	ldp	w10, w9, [x22, #8]
	bfi	x10, x9, #32, #32
	str	x10, [x21, :lo12:env]
	mov	x19, x8
.LBB6_28:                               // %"$2"
	mov	x0, x19
	mov	sp, x29
	ldp	x20, x19, [sp, #48]             // 16-byte Folded Reload
	ldp	x22, x21, [sp, #32]             // 16-byte Folded Reload
	ldp	x24, x23, [sp, #16]             // 16-byte Folded Reload
	ldp	x29, x30, [sp], #64             // 16-byte Folded Reload
	ret
.LBB6_29:                               // %"$14"
	mov	x0, x20
	mov	x1, x19
	bl	protErr
.LBB6_30:                               // %"$26"
	mov	x0, x20
	mov	x1, x8
	bl	numErr
.LBB6_31:                               // %"$40"
	mov	x0, x20
	bl	numErr
.Lfunc_end6:
	.size	_inc, .Lfunc_end6-_inc
	.cfi_endproc
                                        // -- End function
	.globl	_dec                            // -- Begin function _dec
	.p2align	4
	.type	_dec,@function
_dec:                                   // @_dec
	.cfi_startproc
// %bb.0:                               // %"$1"
	stp	x29, x30, [sp, #-64]!           // 16-byte Folded Spill
	stp	x24, x23, [sp, #16]             // 16-byte Folded Spill
	stp	x22, x21, [sp, #32]             // 16-byte Folded Spill
	stp	x20, x19, [sp, #48]             // 16-byte Folded Spill
	mov	x29, sp
	.cfi_def_cfa w29, 64
	.cfi_offset w19, -8
	.cfi_offset w20, -16
	.cfi_offset w21, -24
	.cfi_offset w22, -32
	.cfi_offset w23, -40
	.cfi_offset w24, -48
	.cfi_offset w30, -56
	.cfi_offset w29, -64
	mov	x20, x0
	ldp	w24, w8, [x0, #8]
	bfi	x24, x8, #32, #32
	ldp	w19, w8, [x24]
	bfi	x19, x8, #32, #32
	tst	x19, #0x6
	b.ne	.LBB7_4
// %bb.1:                               // %"$4"
	tbz	w19, #3, .LBB7_3
// %bb.2:                               // %"$7"
	ldp	w19, w8, [x19]
	bfi	x19, x8, #32, #32
	b	.LBB7_4
.LBB7_3:                                // %"$6"
	mov	x0, x19
	bl	evList
	mov	x19, x0
.LBB7_4:                                // %"$3"
	adrp	x23, SymTab+8
	add	x23, x23, :lo12:SymTab+8
	cmp	x19, x23
	b.eq	.LBB7_28
// %bb.5:                               // %"$8"
	tst	x19, #0x6
	b.eq	.LBB7_7
// %bb.6:                               // %"$11"
	mov	x0, x19
	bl	decs
	mov	x19, x0
	b	.LBB7_28
.LBB7_7:                                // %"$10"
	add	x8, x23, #208                   // =208
	cmp	x8, x19
	ccmp	x19, x23, #0, hs
	b.hs	.LBB7_29
// %bb.8:                               // %"$15"
	adrp	x21, env
	ldr	x8, [x21, :lo12:env]
	mov	x9, sp
	sub	x22, x9, #16                    // =16
	mov	sp, x22
	lsr	x10, x19, #32
	lsr	x11, x8, #32
	stp	w19, w10, [x9, #-16]
	stp	w8, w11, [x9, #-8]
	str	x22, [x21, :lo12:env]
	tbz	w19, #3, .LBB7_10
// %bb.9:                               // %"$17"
	ldurb	w8, [x19, #-8]
	ubfx	w8, w8, #3, #1
	cbnz	w8, .LBB7_11
	b	.LBB7_12
.LBB7_10:
	mov	w8, wzr
	cbz	w8, .LBB7_12
.LBB7_11:                               // %"$18"
	mov	x0, x20
	mov	x1, x19
	bl	dbTouch
.LBB7_12:                               // %"$19"
	ldp	w8, w9, [x24, #8]
	bfi	x8, x9, #32, #32
	tst	x8, #0xf
	b.eq	.LBB7_16
// %bb.13:                              // %"$20"
	ldp	w8, w9, [x19]
	bfi	x8, x9, #32, #32
	cmp	x8, x23
	b.eq	.LBB7_27
// %bb.14:                              // %"$24"
	tst	x8, #0x6
	b.eq	.LBB7_30
// %bb.15:                              // %"$27"
	mov	x0, x8
	bl	decs
	b	.LBB7_26
.LBB7_16:                               // %"$21"
	ldp	w1, w9, [x8]
	bfi	x1, x9, #32, #32
	tst	x1, #0x6
	b.ne	.LBB7_20
// %bb.17:                              // %"$29"
	tbz	w1, #3, .LBB7_19
// %bb.18:                              // %"$32"
	ldp	w1, w8, [x1]
	bfi	x1, x8, #32, #32
	b	.LBB7_20
.LBB7_19:                               // %"$31"
	mov	x0, x1
	bl	evList
	mov	x1, x0
.LBB7_20:                               // %"$28"
	ldr	x8, [x21, :lo12:env]
	mov	x9, sp
	sub	x10, x9, #16                    // =16
	mov	sp, x10
	lsr	x11, x1, #32
	stp	w1, w11, [x9, #-16]
	lsr	x11, x8, #32
	stp	w8, w11, [x9, #-8]
	str	x10, [x21, :lo12:env]
	ldp	w8, w9, [x19]
	bfi	x8, x9, #32, #32
	cmp	x8, x23
	b.eq	.LBB7_27
// %bb.21:                              // %"$34"
	cmp	x1, x23
	b.ne	.LBB7_23
// %bb.22:
	mov	x8, x1
	b	.LBB7_27
.LBB7_23:                               // %"$36"
	tst	x8, #0x6
	b.eq	.LBB7_30
// %bb.24:                              // %"$39"
	tst	x1, #0x6
	b.eq	.LBB7_31
// %bb.25:                              // %"$41"
	mov	x0, x8
	bl	subs
.LBB7_26:                               // %"$22"
	mov	x8, x0
	lsr	x9, x0, #32
	stp	w8, w9, [x19]
.LBB7_27:                               // %"$22"
	ldp	w10, w9, [x22, #8]
	bfi	x10, x9, #32, #32
	str	x10, [x21, :lo12:env]
	mov	x19, x8
.LBB7_28:                               // %"$2"
	mov	x0, x19
	mov	sp, x29
	ldp	x20, x19, [sp, #48]             // 16-byte Folded Reload
	ldp	x22, x21, [sp, #32]             // 16-byte Folded Reload
	ldp	x24, x23, [sp, #16]             // 16-byte Folded Reload
	ldp	x29, x30, [sp], #64             // 16-byte Folded Reload
	ret
.LBB7_29:                               // %"$14"
	mov	x0, x20
	mov	x1, x19
	bl	protErr
.LBB7_30:                               // %"$26"
	mov	x0, x20
	mov	x1, x8
	bl	numErr
.LBB7_31:                               // %"$40"
	mov	x0, x20
	bl	numErr
.Lfunc_end7:
	.size	_dec, .Lfunc_end7-_dec
	.cfi_endproc
                                        // -- End function
	.globl	_mul                            // -- Begin function _mul
	.p2align	4
	.type	_mul,@function
_mul:                                   // @_mul
	.cfi_startproc
// %bb.0:                               // %"$1"
	stp	x29, x30, [sp, #-80]!           // 16-byte Folded Spill
	str	x25, [sp, #16]                  // 8-byte Folded Spill
	stp	x24, x23, [sp, #32]             // 16-byte Folded Spill
	stp	x22, x21, [sp, #48]             // 16-byte Folded Spill
	stp	x20, x19, [sp, #64]             // 16-byte Folded Spill
	mov	x29, sp
	.cfi_def_cfa w29, 80
	.cfi_offset w19, -8
	.cfi_offset w20, -16
	.cfi_offset w21, -24
	.cfi_offset w22, -32
	.cfi_offset w23, -40
	.cfi_offset w24, -48
	.cfi_offset w25, -64
	.cfi_offset w30, -72
	.cfi_offset w29, -80
	mov	x19, x0
	ldp	w20, w8, [x0, #8]
	bfi	x20, x8, #32, #32
	ldp	w1, w8, [x20]
	bfi	x1, x8, #32, #32
	tst	x1, #0x6
	b.ne	.LBB8_4
// %bb.1:                               // %"$3"
	tbz	w1, #3, .LBB8_3
// %bb.2:                               // %"$6"
	ldp	w1, w8, [x1]
	bfi	x1, x8, #32, #32
	b	.LBB8_4
.LBB8_3:                                // %"$5"
	mov	x0, x1
	bl	evList
	mov	x1, x0
.LBB8_4:                                // %"$2"
	adrp	x23, SymTab+8
	add	x23, x23, :lo12:SymTab+8
	cmp	x1, x23
	b.eq	.LBB8_17
// %bb.5:                               // %"$8"
	adrp	x21, env
	ldr	x8, [x21, :lo12:env]
	mov	x9, sp
	sub	x22, x9, #16                    // =16
	mov	sp, x22
	mov	w10, #10
	lsr	x11, x8, #32
	stp	w10, wzr, [x9, #-16]
	stp	w8, w11, [x9, #-8]
	tst	x1, #0x6
	str	x22, [x21, :lo12:env]
	b.eq	.LBB8_18
// %bb.6:                               // %"$11"
	ubfx	x24, x1, #3, #1
	and	x9, x1, #0xfffffffffffffff7
	mov	x10, sp
	sub	x25, x10, #16                   // =16
	mov	sp, x25
	lsr	x11, x1, #32
	adrp	x8, env
	add	x8, x8, :lo12:env
	stp	w9, w11, [x10, #-16]
	ldr	x9, [x8]
	lsr	x11, x9, #32
	stp	w9, w11, [x10, #-8]
	mov	x0, x25
.LBB8_7:                                // %"$12"
                                        // =>This Inner Loop Header: Depth=1
	lsr	x9, x0, #32
	stp	w0, w9, [x8]
	ldp	w20, w8, [x20, #8]
	bfi	x20, x8, #32, #32
	tst	x20, #0xf
	b.ne	.LBB8_15
// %bb.8:                               // %"$13"
                                        //   in Loop: Header=BB8_7 Depth=1
	ldp	w1, w8, [x20]
	bfi	x1, x8, #32, #32
	tst	x1, #0x6
	b.ne	.LBB8_11
// %bb.9:                               // %"$23"
                                        //   in Loop: Header=BB8_7 Depth=1
	tbz	w1, #3, .LBB8_14
// %bb.10:                              // %"$26"
                                        //   in Loop: Header=BB8_7 Depth=1
	ldp	w1, w8, [x1]
	bfi	x1, x8, #32, #32
.LBB8_11:                               // %"$22"
                                        //   in Loop: Header=BB8_7 Depth=1
	cmp	x1, x23
	b.eq	.LBB8_16
.LBB8_12:                               // %"$27"
                                        //   in Loop: Header=BB8_7 Depth=1
	tst	x1, #0x6
	b.eq	.LBB8_18
// %bb.13:                              // %"$30"
                                        //   in Loop: Header=BB8_7 Depth=1
	eor	w8, w24, #0x1
	and	x9, x1, #0xfffffffffffffff7
	tst	w1, #0x8
	csel	w24, w24, w8, eq
	csel	x1, x1, x9, eq
	lsr	x8, x1, #32
	stp	w1, w8, [x22]
	ldp	w0, w8, [x25]
	bfi	x0, x8, #32, #32
	bl	mulu
	mov	x8, x25
	b	.LBB8_7
.LBB8_14:                               // %"$25"
                                        //   in Loop: Header=BB8_7 Depth=1
	mov	x0, x1
	bl	evList
	mov	x1, x0
	cmp	x1, x23
	b.ne	.LBB8_12
	b	.LBB8_16
.LBB8_15:                               // %"$15"
	ldp	w9, w8, [x25]
	bfi	x9, x8, #32, #32
	eor	x8, x9, #0x8
	cmp	x9, #2                          // =2
	csel	x8, x9, x8, eq
	tst	w24, #0x1
	csel	x1, x9, x8, eq
.LBB8_16:                               // %"$14"
	ldp	w9, w8, [x22, #8]
	bfi	x9, x8, #32, #32
	str	x9, [x21, :lo12:env]
.LBB8_17:                               // %"$9"
	mov	x0, x1
	mov	sp, x29
	ldp	x20, x19, [sp, #64]             // 16-byte Folded Reload
	ldp	x22, x21, [sp, #48]             // 16-byte Folded Reload
	ldp	x24, x23, [sp, #32]             // 16-byte Folded Reload
	ldr	x25, [sp, #16]                  // 8-byte Folded Reload
	ldp	x29, x30, [sp], #80             // 16-byte Folded Reload
	ret
.LBB8_18:                               // %"$10"
	mov	x0, x19
	bl	numErr
.Lfunc_end8:
	.size	_mul, .Lfunc_end8-_mul
	.cfi_endproc
                                        // -- End function
	.globl	_mulDiv                         // -- Begin function _mulDiv
	.p2align	4
	.type	_mulDiv,@function
_mulDiv:                                // @_mulDiv
	.cfi_startproc
// %bb.0:                               // %"$1"
	stp	x29, x30, [sp, #-80]!           // 16-byte Folded Spill
	stp	x26, x25, [sp, #16]             // 16-byte Folded Spill
	stp	x24, x23, [sp, #32]             // 16-byte Folded Spill
	stp	x22, x21, [sp, #48]             // 16-byte Folded Spill
	stp	x20, x19, [sp, #64]             // 16-byte Folded Spill
	mov	x29, sp
	.cfi_def_cfa w29, 80
	.cfi_offset w19, -8
	.cfi_offset w20, -16
	.cfi_offset w21, -24
	.cfi_offset w22, -32
	.cfi_offset w23, -40
	.cfi_offset w24, -48
	.cfi_offset w25, -56
	.cfi_offset w26, -64
	.cfi_offset w30, -72
	.cfi_offset w29, -80
	mov	x19, x0
	ldp	w20, w8, [x0, #8]
	bfi	x20, x8, #32, #32
	ldp	w1, w8, [x20]
	bfi	x1, x8, #32, #32
	tst	x1, #0x6
	b.ne	.LBB9_4
// %bb.1:                               // %"$3"
	tbz	w1, #3, .LBB9_3
// %bb.2:                               // %"$6"
	ldp	w1, w8, [x1]
	bfi	x1, x8, #32, #32
	b	.LBB9_4
.LBB9_3:                                // %"$5"
	mov	x0, x1
	bl	evList
	mov	x1, x0
.LBB9_4:                                // %"$2"
	adrp	x25, SymTab+8
	add	x25, x25, :lo12:SymTab+8
	cmp	x1, x25
	b.eq	.LBB9_19
// %bb.5:                               // %"$8"
	adrp	x21, env
	ldr	x8, [x21, :lo12:env]
	mov	x9, sp
	sub	x22, x9, #16                    // =16
	mov	sp, x22
	mov	w10, #10
	lsr	x11, x8, #32
	stp	w10, wzr, [x9, #-16]
	stp	w8, w11, [x9, #-8]
	tst	x1, #0x6
	str	x22, [x21, :lo12:env]
	b.eq	.LBB9_20
// %bb.6:                               // %"$11"
	ubfx	x23, x1, #3, #1
	and	x8, x1, #0xfffffffffffffff7
	mov	x9, sp
	sub	x24, x9, #16                    // =16
	mov	sp, x24
	lsr	x10, x1, #32
	stp	w8, w10, [x9, #-16]
	ldr	x8, [x21, :lo12:env]
	lsr	x10, x8, #32
	stp	w8, w10, [x9, #-8]
	str	x24, [x21, :lo12:env]
	ldp	w26, w8, [x20, #8]
	bfi	x26, x8, #32, #32
.LBB9_7:                                // %"$12"
                                        // =>This Inner Loop Header: Depth=1
	ldp	w1, w8, [x26]
	bfi	x1, x8, #32, #32
	tst	x1, #0x6
	b.ne	.LBB9_10
// %bb.8:                               // %"$14"
                                        //   in Loop: Header=BB9_7 Depth=1
	tbz	w1, #3, .LBB9_14
// %bb.9:                               // %"$17"
                                        //   in Loop: Header=BB9_7 Depth=1
	ldp	w1, w8, [x1]
	bfi	x1, x8, #32, #32
.LBB9_10:                               // %"$13"
                                        //   in Loop: Header=BB9_7 Depth=1
	cmp	x1, x25
	b.eq	.LBB9_18
.LBB9_11:                               // %"$18"
                                        //   in Loop: Header=BB9_7 Depth=1
	tst	x1, #0x6
	b.eq	.LBB9_20
// %bb.12:                              // %"$22"
                                        //   in Loop: Header=BB9_7 Depth=1
	eor	w8, w23, #0x1
	and	x9, x1, #0xfffffffffffffff7
	tst	w1, #0x8
	csel	w23, w23, w8, eq
	csel	x20, x1, x9, eq
	lsr	x8, x20, #32
	stp	w20, w8, [x22]
	ldp	w26, w8, [x26, #8]
	bfi	x26, x8, #32, #32
	tst	x26, #0xf
	b.ne	.LBB9_15
// %bb.13:                              // %"$25"
                                        //   in Loop: Header=BB9_7 Depth=1
	ldp	w0, w8, [x24]
	bfi	x0, x8, #32, #32
	mov	x1, x20
	bl	mulu
	lsr	x8, x0, #32
	stp	w0, w8, [x24]
	b	.LBB9_7
.LBB9_14:                               // %"$16"
                                        //   in Loop: Header=BB9_7 Depth=1
	mov	x0, x1
	bl	evList
	mov	x1, x0
	cmp	x1, x25
	b.ne	.LBB9_11
	b	.LBB9_18
.LBB9_15:                               // %"$26"
	cmp	x20, #2                         // =2
	b.eq	.LBB9_21
// %bb.16:                              // %"$28"
	mov	x0, x20
	bl	shru
	mov	x1, x0
	ldr	x8, [x21, :lo12:env]
	mov	x9, sp
	sub	x10, x9, #16                    // =16
	mov	sp, x10
	lsr	x11, x0, #32
	stp	w1, w11, [x9, #-16]
	lsr	x11, x8, #32
	stp	w8, w11, [x9, #-8]
	str	x10, [x21, :lo12:env]
	ldp	w0, w8, [x24]
	bfi	x0, x8, #32, #32
	bl	addu
	lsr	x8, x0, #32
	stp	w0, w8, [x24]
	mov	x1, x20
	bl	divu
	mov	x1, x0
	tbz	w23, #0, .LBB9_18
// %bb.17:                              // %"$29"
	eor	x8, x1, #0x8
	cmp	x1, #2                          // =2
	csel	x1, x1, x8, eq
.LBB9_18:                               // %"$19"
	ldp	w9, w8, [x22, #8]
	bfi	x9, x8, #32, #32
	str	x9, [x21, :lo12:env]
.LBB9_19:                               // %"$9"
	mov	x0, x1
	mov	sp, x29
	ldp	x20, x19, [sp, #64]             // 16-byte Folded Reload
	ldp	x22, x21, [sp, #48]             // 16-byte Folded Reload
	ldp	x24, x23, [sp, #32]             // 16-byte Folded Reload
	ldp	x26, x25, [sp, #16]             // 16-byte Folded Reload
	ldp	x29, x30, [sp], #80             // 16-byte Folded Reload
	ret
.LBB9_20:                               // %"$10"
	mov	x0, x19
	bl	numErr
.LBB9_21:                               // %"$27"
	mov	x0, x19
	bl	divErr
.Lfunc_end9:
	.size	_mulDiv, .Lfunc_end9-_mulDiv
	.cfi_endproc
                                        // -- End function
	.globl	_div                            // -- Begin function _div
	.p2align	4
	.type	_div,@function
_div:                                   // @_div
	.cfi_startproc
// %bb.0:                               // %"$1"
	stp	x29, x30, [sp, #-80]!           // 16-byte Folded Spill
	str	x25, [sp, #16]                  // 8-byte Folded Spill
	stp	x24, x23, [sp, #32]             // 16-byte Folded Spill
	stp	x22, x21, [sp, #48]             // 16-byte Folded Spill
	stp	x20, x19, [sp, #64]             // 16-byte Folded Spill
	mov	x29, sp
	.cfi_def_cfa w29, 80
	.cfi_offset w19, -8
	.cfi_offset w20, -16
	.cfi_offset w21, -24
	.cfi_offset w22, -32
	.cfi_offset w23, -40
	.cfi_offset w24, -48
	.cfi_offset w25, -64
	.cfi_offset w30, -72
	.cfi_offset w29, -80
	mov	x19, x0
	ldp	w20, w8, [x0, #8]
	bfi	x20, x8, #32, #32
	ldp	w1, w8, [x20]
	bfi	x1, x8, #32, #32
	tst	x1, #0x6
	b.ne	.LBB10_4
// %bb.1:                               // %"$3"
	tbz	w1, #3, .LBB10_3
// %bb.2:                               // %"$6"
	ldp	w1, w8, [x1]
	bfi	x1, x8, #32, #32
	b	.LBB10_4
.LBB10_3:                               // %"$5"
	mov	x0, x1
	bl	evList
	mov	x1, x0
.LBB10_4:                               // %"$2"
	adrp	x23, SymTab+8
	add	x23, x23, :lo12:SymTab+8
	cmp	x1, x23
	b.eq	.LBB10_18
// %bb.5:                               // %"$8"
	adrp	x21, env
	ldr	x8, [x21, :lo12:env]
	mov	x9, sp
	sub	x22, x9, #16                    // =16
	mov	sp, x22
	mov	w10, #10
	lsr	x11, x8, #32
	stp	w10, wzr, [x9, #-16]
	stp	w8, w11, [x9, #-8]
	tst	x1, #0x6
	str	x22, [x21, :lo12:env]
	b.eq	.LBB10_20
// %bb.6:                               // %"$11"
	ubfx	x24, x1, #3, #1
	and	x9, x1, #0xfffffffffffffff7
	mov	x10, sp
	sub	x25, x10, #16                   // =16
	mov	sp, x25
	lsr	x11, x1, #32
	adrp	x8, env
	add	x8, x8, :lo12:env
	stp	w9, w11, [x10, #-16]
	ldr	x9, [x8]
	lsr	x11, x9, #32
	stp	w9, w11, [x10, #-8]
	mov	x0, x25
.LBB10_7:                               // %"$12"
                                        // =>This Inner Loop Header: Depth=1
	lsr	x9, x0, #32
	stp	w0, w9, [x8]
	ldp	w20, w8, [x20, #8]
	bfi	x20, x8, #32, #32
	tst	x20, #0xf
	b.ne	.LBB10_16
// %bb.8:                               // %"$13"
                                        //   in Loop: Header=BB10_7 Depth=1
	ldp	w1, w8, [x20]
	bfi	x1, x8, #32, #32
	tst	x1, #0x6
	b.ne	.LBB10_11
// %bb.9:                               // %"$23"
                                        //   in Loop: Header=BB10_7 Depth=1
	tbz	w1, #3, .LBB10_15
// %bb.10:                              // %"$26"
                                        //   in Loop: Header=BB10_7 Depth=1
	ldp	w1, w8, [x1]
	bfi	x1, x8, #32, #32
.LBB10_11:                              // %"$22"
                                        //   in Loop: Header=BB10_7 Depth=1
	cmp	x1, x23
	b.eq	.LBB10_17
.LBB10_12:                              // %"$27"
                                        //   in Loop: Header=BB10_7 Depth=1
	cmp	x1, #2                          // =2
	b.eq	.LBB10_19
// %bb.13:                              // %"$30"
                                        //   in Loop: Header=BB10_7 Depth=1
	tst	x1, #0x6
	b.eq	.LBB10_20
// %bb.14:                              // %"$32"
                                        //   in Loop: Header=BB10_7 Depth=1
	eor	w8, w24, #0x1
	and	x9, x1, #0xfffffffffffffff7
	tst	w1, #0x8
	csel	w24, w24, w8, eq
	csel	x1, x1, x9, eq
	lsr	x8, x1, #32
	stp	w1, w8, [x22]
	ldp	w0, w8, [x25]
	bfi	x0, x8, #32, #32
	bl	divu
	mov	x8, x25
	b	.LBB10_7
.LBB10_15:                              // %"$25"
                                        //   in Loop: Header=BB10_7 Depth=1
	mov	x0, x1
	bl	evList
	mov	x1, x0
	cmp	x1, x23
	b.ne	.LBB10_12
	b	.LBB10_17
.LBB10_16:                              // %"$15"
	ldp	w9, w8, [x25]
	bfi	x9, x8, #32, #32
	eor	x8, x9, #0x8
	cmp	x9, #2                          // =2
	csel	x8, x9, x8, eq
	tst	w24, #0x1
	csel	x1, x9, x8, eq
.LBB10_17:                              // %"$14"
	ldp	w9, w8, [x22, #8]
	bfi	x9, x8, #32, #32
	str	x9, [x21, :lo12:env]
.LBB10_18:                              // %"$9"
	mov	x0, x1
	mov	sp, x29
	ldp	x20, x19, [sp, #64]             // 16-byte Folded Reload
	ldp	x22, x21, [sp, #48]             // 16-byte Folded Reload
	ldp	x24, x23, [sp, #32]             // 16-byte Folded Reload
	ldr	x25, [sp, #16]                  // 8-byte Folded Reload
	ldp	x29, x30, [sp], #80             // 16-byte Folded Reload
	ret
.LBB10_19:                              // %"$29"
	mov	x0, x19
	bl	divErr
.LBB10_20:                              // %"$10"
	mov	x0, x19
	bl	numErr
.Lfunc_end10:
	.size	_div, .Lfunc_end10-_div
	.cfi_endproc
                                        // -- End function
	.globl	_rem                            // -- Begin function _rem
	.p2align	4
	.type	_rem,@function
_rem:                                   // @_rem
	.cfi_startproc
// %bb.0:                               // %"$1"
	stp	x29, x30, [sp, #-80]!           // 16-byte Folded Spill
	str	x25, [sp, #16]                  // 8-byte Folded Spill
	stp	x24, x23, [sp, #32]             // 16-byte Folded Spill
	stp	x22, x21, [sp, #48]             // 16-byte Folded Spill
	stp	x20, x19, [sp, #64]             // 16-byte Folded Spill
	mov	x29, sp
	.cfi_def_cfa w29, 80
	.cfi_offset w19, -8
	.cfi_offset w20, -16
	.cfi_offset w21, -24
	.cfi_offset w22, -32
	.cfi_offset w23, -40
	.cfi_offset w24, -48
	.cfi_offset w25, -64
	.cfi_offset w30, -72
	.cfi_offset w29, -80
	mov	x20, x0
	ldp	w21, w8, [x0, #8]
	bfi	x21, x8, #32, #32
	ldp	w19, w8, [x21]
	bfi	x19, x8, #32, #32
	tst	x19, #0x6
	b.ne	.LBB11_4
// %bb.1:                               // %"$3"
	tbz	w19, #3, .LBB11_3
// %bb.2:                               // %"$6"
	ldp	w19, w8, [x19]
	bfi	x19, x8, #32, #32
	b	.LBB11_4
.LBB11_3:                               // %"$5"
	mov	x0, x19
	bl	evList
	mov	x19, x0
.LBB11_4:                               // %"$2"
	adrp	x24, SymTab+8
	add	x24, x24, :lo12:SymTab+8
	cmp	x19, x24
	b.eq	.LBB11_18
// %bb.5:                               // %"$8"
	adrp	x22, env
	ldr	x8, [x22, :lo12:env]
	mov	x9, sp
	sub	x23, x9, #16                    // =16
	mov	sp, x23
	mov	w10, #10
	lsr	x11, x8, #32
	stp	w10, wzr, [x9, #-16]
	stp	w8, w11, [x9, #-8]
	tst	x19, #0x6
	str	x23, [x22, :lo12:env]
	b.eq	.LBB11_21
// %bb.6:                               // %"$11"
	and	x9, x19, #0xfffffffffffffff7
	mov	x10, sp
	sub	x25, x10, #16                   // =16
	mov	sp, x25
	lsr	x11, x19, #32
	adrp	x8, env
	add	x8, x8, :lo12:env
	stp	w9, w11, [x10, #-16]
	ldr	x9, [x8]
	lsr	x11, x9, #32
	stp	w9, w11, [x10, #-8]
	mov	x0, x25
.LBB11_7:                               // %"$12"
                                        // =>This Inner Loop Header: Depth=1
	lsr	x9, x0, #32
	stp	w0, w9, [x8]
	ldp	w21, w8, [x21, #8]
	bfi	x21, x8, #32, #32
	tst	x21, #0xf
	b.ne	.LBB11_16
// %bb.8:                               // %"$13"
                                        //   in Loop: Header=BB11_7 Depth=1
	ldp	w8, w9, [x21]
	bfi	x8, x9, #32, #32
	tst	x8, #0x6
	b.ne	.LBB11_11
// %bb.9:                               // %"$23"
                                        //   in Loop: Header=BB11_7 Depth=1
	tbz	w8, #3, .LBB11_15
// %bb.10:                              // %"$26"
                                        //   in Loop: Header=BB11_7 Depth=1
	ldp	w8, w9, [x8]
	bfi	x8, x9, #32, #32
.LBB11_11:                              // %"$22"
                                        //   in Loop: Header=BB11_7 Depth=1
	cmp	x8, x24
	b.eq	.LBB11_17
.LBB11_12:                              // %"$27"
                                        //   in Loop: Header=BB11_7 Depth=1
	cmp	x8, #2                          // =2
	b.eq	.LBB11_19
// %bb.13:                              // %"$30"
                                        //   in Loop: Header=BB11_7 Depth=1
	tst	x8, #0x6
	b.eq	.LBB11_20
// %bb.14:                              // %"$32"
                                        //   in Loop: Header=BB11_7 Depth=1
	ldp	w0, w9, [x25]
	bfi	x0, x9, #32, #32
	and	x1, x8, #0xfffffffffffffff7
	lsr	x8, x8, #32
	stp	w1, w8, [x23]
	bl	remu
	mov	x8, x25
	b	.LBB11_7
.LBB11_15:                              // %"$25"
                                        //   in Loop: Header=BB11_7 Depth=1
	mov	x0, x8
	bl	evList
	mov	x8, x0
	cmp	x8, x24
	b.ne	.LBB11_12
	b	.LBB11_17
.LBB11_16:                              // %"$15"
	ldp	w9, w8, [x25]
	bfi	x9, x8, #32, #32
	eor	x8, x9, #0x8
	cmp	x9, #2                          // =2
	csel	x8, x9, x8, eq
	tst	w19, #0x8
	csel	x8, x9, x8, eq
.LBB11_17:                              // %"$14"
	ldp	w10, w9, [x23, #8]
	bfi	x10, x9, #32, #32
	str	x10, [x22, :lo12:env]
	mov	x19, x8
.LBB11_18:                              // %"$9"
	mov	x0, x19
	mov	sp, x29
	ldp	x20, x19, [sp, #64]             // 16-byte Folded Reload
	ldp	x22, x21, [sp, #48]             // 16-byte Folded Reload
	ldp	x24, x23, [sp, #32]             // 16-byte Folded Reload
	ldr	x25, [sp, #16]                  // 8-byte Folded Reload
	ldp	x29, x30, [sp], #80             // 16-byte Folded Reload
	ret
.LBB11_19:                              // %"$29"
	mov	x0, x20
	bl	divErr
.LBB11_20:                              // %"$31"
	mov	x0, x20
	mov	x1, x8
	bl	numErr
.LBB11_21:                              // %"$10"
	mov	x0, x20
	mov	x1, x19
	bl	numErr
.Lfunc_end11:
	.size	_rem, .Lfunc_end11-_rem
	.cfi_endproc
                                        // -- End function
	.globl	_shr                            // -- Begin function _shr
	.p2align	4
	.type	_shr,@function
_shr:                                   // @_shr
	.cfi_startproc
// %bb.0:                               // %"$1"
	stp	x29, x30, [sp, #-48]!           // 16-byte Folded Spill
	stp	x22, x21, [sp, #16]             // 16-byte Folded Spill
	stp	x20, x19, [sp, #32]             // 16-byte Folded Spill
	mov	x29, sp
	.cfi_def_cfa w29, 48
	.cfi_offset w19, -8
	.cfi_offset w20, -16
	.cfi_offset w21, -24
	.cfi_offset w22, -32
	.cfi_offset w30, -40
	.cfi_offset w29, -48
	mov	x21, x0
	ldp	w19, w8, [x0, #8]
	bfi	x19, x8, #32, #32
	mov	x1, x19
	bl	evCnt
	mov	x20, x0
	ldp	w9, w8, [x19, #8]
	bfi	x9, x8, #32, #32
	ldp	w19, w8, [x9]
	bfi	x19, x8, #32, #32
	tst	x19, #0x6
	b.eq	.LBB12_4
// %bb.1:                               // %"$2"
	cbz	x20, .LBB12_3
.LBB12_2:                               // %"$8"
	adrp	x8, SymTab+8
	add	x8, x8, :lo12:SymTab+8
	cmp	x19, x8
	b.ne	.LBB12_6
.LBB12_3:
	mov	w8, #1
	tbnz	w8, #0, .LBB12_20
	b	.LBB12_8
.LBB12_4:                               // %"$3"
	tbz	w19, #3, .LBB12_16
// %bb.5:                               // %"$6"
	ldp	w19, w8, [x19]
	bfi	x19, x8, #32, #32
	cbnz	x20, .LBB12_2
	b	.LBB12_3
.LBB12_6:                               // %"$9"
	tst	x19, #0x6
	b.eq	.LBB12_21
// %bb.7:                               // %"$11"
	cmp	x19, #2                         // =2
	cset	w8, eq
	tbnz	w8, #0, .LBB12_20
.LBB12_8:                               // %"$13"
	and	x1, x19, #0xfffffffffffffff7
	adrp	x21, env
	ldr	x8, [x21, :lo12:env]
	mov	x9, sp
	sub	x22, x9, #16                    // =16
	mov	sp, x22
	lsr	x10, x19, #32
	lsr	x11, x8, #32
	stp	w1, w10, [x9, #-16]
	stp	w8, w11, [x9, #-8]
	cmp	x20, #0                         // =0
	str	x22, [x21, :lo12:env]
	b.le	.LBB12_12
.LBB12_9:                               // %"$18"
                                        // =>This Inner Loop Header: Depth=1
	cmp	x20, #63                        // =63
	cset	w8, hi
	tst	w1, #0x4
	csel	w8, wzr, w8, eq
	cbz	w8, .LBB12_17
// %bb.10:                              // %"$21"
                                        //   in Loop: Header=BB12_9 Depth=1
	ldp	w1, w8, [x1, #4]
	bfi	x1, x8, #32, #32
	subs	x20, x20, #64                   // =64
	b.ne	.LBB12_9
	b	.LBB12_19
.LBB12_11:                              // %"$29"
                                        //   in Loop: Header=BB12_12 Depth=1
	mov	x0, xzr
	bl	consNum
	mov	x1, x0
	lsr	x8, x0, #32
	stp	w1, w8, [x22]
	adds	x20, x20, #64                   // =64
	b.eq	.LBB12_19
.LBB12_12:                              // %"$28"
                                        // =>This Inner Loop Header: Depth=1
	cmn	x20, #64                        // =64
	b.ls	.LBB12_11
// %bb.13:                              // %"$30"
	mov	x0, x1
	bl	shlu
.LBB12_14:                              // %"$33"
                                        // =>This Inner Loop Header: Depth=1
	mov	x1, x0
	add	x20, x20, #1                    // =1
	lsr	x8, x0, #32
	stp	w1, w8, [x22]
	cbz	x20, .LBB12_19
// %bb.15:                              // %"$34"
                                        //   in Loop: Header=BB12_14 Depth=1
	mov	x0, x1
	bl	twice
	b	.LBB12_14
.LBB12_16:                              // %"$5"
	mov	x0, x19
	bl	evList
	mov	x19, x0
	cbnz	x20, .LBB12_2
	b	.LBB12_3
.LBB12_17:                              // %"$22"
	mov	x0, x1
	bl	shru
	mov	x1, x0
	lsr	x8, x0, #32
	stp	w1, w8, [x22]
	sub	x20, x20, #1                    // =1
	cbz	x20, .LBB12_19
.LBB12_18:                              // %"$26"
                                        // =>This Inner Loop Header: Depth=1
	mov	x0, x1
	bl	half
	mov	x1, x0
	sub	x20, x20, #1                    // =1
	cbnz	x20, .LBB12_18
.LBB12_19:                              // %"$-9"
	eor	x8, x1, #0x8
	cmp	x1, #2                          // =2
	csel	x8, x1, x8, eq
	tst	w19, #0x8
	csel	x19, x1, x8, eq
	ldp	w9, w8, [x22, #8]
	bfi	x9, x8, #32, #32
	str	x9, [x21, :lo12:env]
.LBB12_20:                              // %"$14"
	mov	x0, x19
	mov	sp, x29
	ldp	x20, x19, [sp, #32]             // 16-byte Folded Reload
	ldp	x22, x21, [sp, #16]             // 16-byte Folded Reload
	ldp	x29, x30, [sp], #48             // 16-byte Folded Reload
	ret
.LBB12_21:                              // %"$10"
	mov	x0, x21
	mov	x1, x19
	bl	numErr
.Lfunc_end12:
	.size	_shr, .Lfunc_end12-_shr
	.cfi_endproc
                                        // -- End function
	.globl	_lt0                            // -- Begin function _lt0
	.p2align	4
	.type	_lt0,@function
_lt0:                                   // @_lt0
	.cfi_startproc
// %bb.0:                               // %"$1"
	str	x30, [sp, #-16]!                // 8-byte Folded Spill
	.cfi_def_cfa_offset 16
	.cfi_offset w30, -16
	ldp	w9, w8, [x0, #8]
	bfi	x9, x8, #32, #32
	ldp	w0, w8, [x9]
	bfi	x0, x8, #32, #32
	tst	x0, #0x6
	b.ne	.LBB13_4
// %bb.1:                               // %"$4"
	tbz	w0, #3, .LBB13_3
// %bb.2:                               // %"$7"
	ldp	w0, w8, [x0]
	bfi	x0, x8, #32, #32
	b	.LBB13_4
.LBB13_3:                               // %"$6"
	bl	evList
.LBB13_4:                               // %"$3"
	tst	x0, #0x6
	cset	w8, ne
	ubfx	x9, x0, #3, #1
	adrp	x10, SymTab+8
	add	x10, x10, :lo12:SymTab+8
	tst	w8, w9
	csel	x0, x0, x10, ne
	ldr	x30, [sp], #16                  // 8-byte Folded Reload
	ret
.Lfunc_end13:
	.size	_lt0, .Lfunc_end13-_lt0
	.cfi_endproc
                                        // -- End function
	.globl	_le0                            // -- Begin function _le0
	.p2align	4
	.type	_le0,@function
_le0:                                   // @_le0
	.cfi_startproc
// %bb.0:                               // %"$1"
	str	x30, [sp, #-16]!                // 8-byte Folded Spill
	.cfi_def_cfa_offset 16
	.cfi_offset w30, -16
	ldp	w9, w8, [x0, #8]
	bfi	x9, x8, #32, #32
	ldp	w0, w8, [x9]
	bfi	x0, x8, #32, #32
	tst	x0, #0x6
	b.ne	.LBB14_4
// %bb.1:                               // %"$4"
	tbz	w0, #3, .LBB14_3
// %bb.2:                               // %"$7"
	ldp	w0, w8, [x0]
	bfi	x0, x8, #32, #32
	b	.LBB14_4
.LBB14_3:                               // %"$6"
	bl	evList
.LBB14_4:                               // %"$3"
	tst	x0, #0x6
	cset	w8, ne
	cmp	x0, #2                          // =2
	cset	w9, eq
	ubfx	x10, x0, #3, #1
	orr	w9, w9, w10
	adrp	x10, SymTab+8
	add	x10, x10, :lo12:SymTab+8
	tst	w8, w9
	csel	x0, x0, x10, ne
	ldr	x30, [sp], #16                  // 8-byte Folded Reload
	ret
.Lfunc_end14:
	.size	_le0, .Lfunc_end14-_le0
	.cfi_endproc
                                        // -- End function
	.globl	_ge0                            // -- Begin function _ge0
	.p2align	4
	.type	_ge0,@function
_ge0:                                   // @_ge0
	.cfi_startproc
// %bb.0:                               // %"$1"
	str	x30, [sp, #-16]!                // 8-byte Folded Spill
	.cfi_def_cfa_offset 16
	.cfi_offset w30, -16
	ldp	w9, w8, [x0, #8]
	bfi	x9, x8, #32, #32
	ldp	w0, w8, [x9]
	bfi	x0, x8, #32, #32
	tst	x0, #0x6
	b.ne	.LBB15_4
// %bb.1:                               // %"$4"
	tbz	w0, #3, .LBB15_3
// %bb.2:                               // %"$7"
	ldp	w0, w8, [x0]
	bfi	x0, x8, #32, #32
	b	.LBB15_4
.LBB15_3:                               // %"$6"
	bl	evList
.LBB15_4:                               // %"$3"
	and	x8, x0, #0x6
	tst	x0, #0x8
	adrp	x9, SymTab+8
	add	x9, x9, :lo12:SymTab+8
	ccmp	x8, #0, #4, eq
	csel	x0, x0, x9, ne
	ldr	x30, [sp], #16                  // 8-byte Folded Reload
	ret
.Lfunc_end15:
	.size	_ge0, .Lfunc_end15-_ge0
	.cfi_endproc
                                        // -- End function
	.globl	_gt0                            // -- Begin function _gt0
	.p2align	4
	.type	_gt0,@function
_gt0:                                   // @_gt0
	.cfi_startproc
// %bb.0:                               // %"$1"
	str	x30, [sp, #-16]!                // 8-byte Folded Spill
	.cfi_def_cfa_offset 16
	.cfi_offset w30, -16
	ldp	w9, w8, [x0, #8]
	bfi	x9, x8, #32, #32
	ldp	w0, w8, [x9]
	bfi	x0, x8, #32, #32
	tst	x0, #0x6
	b.ne	.LBB16_4
// %bb.1:                               // %"$4"
	tbz	w0, #3, .LBB16_3
// %bb.2:                               // %"$7"
	ldp	w0, w8, [x0]
	bfi	x0, x8, #32, #32
	b	.LBB16_4
.LBB16_3:                               // %"$6"
	bl	evList
.LBB16_4:                               // %"$3"
	and	x8, x0, #0x6
	tst	x0, #0x8
	cset	w9, eq
	cmp	x8, #0                          // =0
	ccmp	x0, #2, #4, ne
	csel	w8, wzr, w9, eq
	adrp	x9, SymTab+8
	add	x9, x9, :lo12:SymTab+8
	cmp	w8, #0                          // =0
	csel	x0, x0, x9, ne
	ldr	x30, [sp], #16                  // 8-byte Folded Reload
	ret
.Lfunc_end16:
	.size	_gt0, .Lfunc_end16-_gt0
	.cfi_endproc
                                        // -- End function
	.globl	_abs                            // -- Begin function _abs
	.p2align	4
	.type	_abs,@function
_abs:                                   // @_abs
	.cfi_startproc
// %bb.0:                               // %"$1"
	stp	x30, x19, [sp, #-16]!           // 16-byte Folded Spill
	.cfi_def_cfa_offset 16
	.cfi_offset w19, -8
	.cfi_offset w30, -16
	mov	x19, x0
	ldp	w9, w8, [x0, #8]
	bfi	x9, x8, #32, #32
	ldp	w1, w8, [x9]
	bfi	x1, x8, #32, #32
	tst	x1, #0x6
	b.ne	.LBB17_4
// %bb.1:                               // %"$3"
	tbz	w1, #3, .LBB17_3
// %bb.2:                               // %"$6"
	ldp	w1, w8, [x1]
	bfi	x1, x8, #32, #32
	b	.LBB17_4
.LBB17_3:                               // %"$5"
	mov	x0, x1
	bl	evList
	mov	x1, x0
.LBB17_4:                               // %"$2"
	adrp	x8, SymTab+8
	add	x8, x8, :lo12:SymTab+8
	cmp	x1, x8
	b.eq	.LBB17_7
// %bb.5:                               // %"$8"
	tst	x1, #0x6
	b.eq	.LBB17_8
// %bb.6:                               // %"$11"
	and	x1, x1, #0xfffffffffffffff7
.LBB17_7:                               // %"$9"
	mov	x0, x1
	ldp	x30, x19, [sp], #16             // 16-byte Folded Reload
	ret
.LBB17_8:                               // %"$10"
	mov	x0, x19
	bl	numErr
.Lfunc_end17:
	.size	_abs, .Lfunc_end17-_abs
	.cfi_endproc
                                        // -- End function
	.globl	_bitQ                           // -- Begin function _bitQ
	.p2align	4
	.type	_bitQ,@function
_bitQ:                                  // @_bitQ
	.cfi_startproc
// %bb.0:                               // %"$1"
	stp	x29, x30, [sp, #-80]!           // 16-byte Folded Spill
	str	x25, [sp, #16]                  // 8-byte Folded Spill
	stp	x24, x23, [sp, #32]             // 16-byte Folded Spill
	stp	x22, x21, [sp, #48]             // 16-byte Folded Spill
	stp	x20, x19, [sp, #64]             // 16-byte Folded Spill
	mov	x29, sp
	.cfi_def_cfa w29, 80
	.cfi_offset w19, -8
	.cfi_offset w20, -16
	.cfi_offset w21, -24
	.cfi_offset w22, -32
	.cfi_offset w23, -40
	.cfi_offset w24, -48
	.cfi_offset w25, -64
	.cfi_offset w30, -72
	.cfi_offset w29, -80
	mov	x19, x0
	ldp	w9, w8, [x0, #8]
	bfi	x9, x8, #32, #32
	ldp	w1, w8, [x9]
	bfi	x1, x8, #32, #32
	ldp	w21, w20, [x9, #8]
	tst	x1, #0x6
	b.ne	.LBB18_4
// %bb.1:                               // %"$3"
	tbz	w1, #3, .LBB18_3
// %bb.2:                               // %"$6"
	ldp	w1, w8, [x1]
	bfi	x1, x8, #32, #32
	b	.LBB18_4
.LBB18_3:                               // %"$5"
	mov	x0, x1
	bl	evList
	mov	x1, x0
.LBB18_4:                               // %"$2"
	tst	x1, #0x6
	b.eq	.LBB18_25
// %bb.5:                               // %"$8"
	bfi	x21, x20, #32, #32
	and	x20, x1, #0xfffffffffffffff7
	adrp	x22, env
	ldr	x8, [x22, :lo12:env]
	mov	x9, sp
	sub	x23, x9, #16                    // =16
	mov	sp, x23
	lsr	x10, x1, #32
	lsr	x11, x8, #32
	stp	w20, w10, [x9, #-16]
	stp	w8, w11, [x9, #-8]
	adrp	x24, SymTab+8
	add	x24, x24, :lo12:SymTab+8
	str	x23, [x22, :lo12:env]
.LBB18_6:                               // %"$9"
                                        // =>This Loop Header: Depth=1
                                        //     Child Loop BB18_14 Depth 2
	tst	x21, #0xf
	b.ne	.LBB18_24
// %bb.7:                               // %"$10"
                                        //   in Loop: Header=BB18_6 Depth=1
	ldp	w1, w8, [x21]
	bfi	x1, x8, #32, #32
	ldp	w21, w25, [x21, #8]
	tst	x1, #0x6
	b.ne	.LBB18_11
// %bb.8:                               // %"$14"
                                        //   in Loop: Header=BB18_6 Depth=1
	tbz	w1, #3, .LBB18_10
// %bb.9:                               // %"$17"
                                        //   in Loop: Header=BB18_6 Depth=1
	ldp	w1, w8, [x1]
	bfi	x1, x8, #32, #32
	b	.LBB18_11
.LBB18_10:                              // %"$16"
                                        //   in Loop: Header=BB18_6 Depth=1
	mov	x0, x1
	bl	evList
	mov	x1, x0
.LBB18_11:                              // %"$13"
                                        //   in Loop: Header=BB18_6 Depth=1
	cmp	x1, x24
	b.eq	.LBB18_23
// %bb.12:                              // %"$18"
                                        //   in Loop: Header=BB18_6 Depth=1
	tst	x1, #0x6
	b.eq	.LBB18_25
// %bb.13:                              // %"$21"
                                        //   in Loop: Header=BB18_6 Depth=1
	bfi	x21, x25, #32, #32
	and	x8, x1, #0xfffffffffffffff7
	mov	x9, x20
	tbz	w9, #2, .LBB18_17
.LBB18_14:                              // %"$23"
                                        //   Parent Loop BB18_6 Depth=1
                                        // =>  This Inner Loop Header: Depth=2
	tbz	w8, #2, .LBB18_21
// %bb.15:                              // %"$26"
                                        //   in Loop: Header=BB18_14 Depth=2
	ldp	w11, w10, [x9, #-4]
	bfi	x11, x10, #32, #32
	ldp	w12, w10, [x8, #-4]
	bfi	x12, x10, #32, #32
	bics	xzr, x11, x12
	b.ne	.LBB18_21
// %bb.16:                              // %"$28"
                                        //   in Loop: Header=BB18_14 Depth=2
	ldp	w8, w10, [x8, #4]
	bfi	x8, x10, #32, #32
	ldp	w9, w10, [x9, #4]
	bfi	x9, x10, #32, #32
	tbnz	w9, #2, .LBB18_14
.LBB18_17:                              // %"$24"
                                        //   in Loop: Header=BB18_6 Depth=1
	tbz	w8, #2, .LBB18_19
// %bb.18:                              // %"$29"
                                        //   in Loop: Header=BB18_6 Depth=1
	lsr	x9, x9, #4
	ldp	w8, w10, [x8, #-4]
	bfi	x8, x10, #32, #32
.LBB18_19:                              // %"$30"
                                        //   in Loop: Header=BB18_6 Depth=1
	bics	xzr, x9, x8
	b.eq	.LBB18_6
// %bb.20:
	mov	x20, x24
	b	.LBB18_24
.LBB18_21:                              // %"$25"
	ldp	w9, w8, [x23, #8]
	bfi	x9, x8, #32, #32
	str	x9, [x22, :lo12:env]
	adrp	x0, SymTab+8
	add	x0, x0, :lo12:SymTab+8
.LBB18_22:                              // %"$25"
	mov	sp, x29
	ldp	x20, x19, [sp, #64]             // 16-byte Folded Reload
	ldp	x22, x21, [sp, #48]             // 16-byte Folded Reload
	ldp	x24, x23, [sp, #32]             // 16-byte Folded Reload
	ldr	x25, [sp, #16]                  // 8-byte Folded Reload
	ldp	x29, x30, [sp], #80             // 16-byte Folded Reload
	ret
.LBB18_23:
	mov	x20, x1
.LBB18_24:                              // %"$11"
	ldp	w9, w8, [x23, #8]
	bfi	x9, x8, #32, #32
	str	x9, [x22, :lo12:env]
	mov	x0, x20
	b	.LBB18_22
.LBB18_25:                              // %"$7"
	mov	x0, x19
	bl	numErr
.Lfunc_end18:
	.size	_bitQ, .Lfunc_end18-_bitQ
	.cfi_endproc
                                        // -- End function
	.globl	_bitAnd                         // -- Begin function _bitAnd
	.p2align	4
	.type	_bitAnd,@function
_bitAnd:                                // @_bitAnd
	.cfi_startproc
// %bb.0:                               // %"$1"
	stp	x29, x30, [sp, #-64]!           // 16-byte Folded Spill
	stp	x24, x23, [sp, #16]             // 16-byte Folded Spill
	stp	x22, x21, [sp, #32]             // 16-byte Folded Spill
	stp	x20, x19, [sp, #48]             // 16-byte Folded Spill
	mov	x29, sp
	.cfi_def_cfa w29, 64
	.cfi_offset w19, -8
	.cfi_offset w20, -16
	.cfi_offset w21, -24
	.cfi_offset w22, -32
	.cfi_offset w23, -40
	.cfi_offset w24, -48
	.cfi_offset w30, -56
	.cfi_offset w29, -64
	mov	x19, x0
	ldp	w20, w8, [x0, #8]
	bfi	x20, x8, #32, #32
	ldp	w1, w8, [x20]
	bfi	x1, x8, #32, #32
	tst	x1, #0x6
	b.ne	.LBB19_4
// %bb.1:                               // %"$3"
	tbz	w1, #3, .LBB19_3
// %bb.2:                               // %"$6"
	ldp	w1, w8, [x1]
	bfi	x1, x8, #32, #32
	b	.LBB19_4
.LBB19_3:                               // %"$5"
	mov	x0, x1
	bl	evList
	mov	x1, x0
.LBB19_4:                               // %"$2"
	adrp	x23, SymTab+8
	add	x23, x23, :lo12:SymTab+8
	cmp	x1, x23
	b.eq	.LBB19_17
// %bb.5:                               // %"$8"
	adrp	x21, env
	ldr	x8, [x21, :lo12:env]
	mov	x9, sp
	sub	x22, x9, #16                    // =16
	mov	sp, x22
	mov	w10, #10
	lsr	x11, x8, #32
	stp	w10, wzr, [x9, #-16]
	stp	w8, w11, [x9, #-8]
	tst	x1, #0x6
	str	x22, [x21, :lo12:env]
	b.eq	.LBB19_18
// %bb.6:                               // %"$11"
	and	x9, x1, #0xfffffffffffffff7
	mov	x10, sp
	sub	x24, x10, #16                   // =16
	mov	sp, x24
	lsr	x11, x1, #32
	adrp	x8, env
	add	x8, x8, :lo12:env
	stp	w9, w11, [x10, #-16]
	ldr	x9, [x8]
	lsr	x11, x9, #32
	stp	w9, w11, [x10, #-8]
	mov	x0, x24
.LBB19_7:                               // %"$12"
                                        // =>This Inner Loop Header: Depth=1
	lsr	x9, x0, #32
	stp	w0, w9, [x8]
	ldp	w20, w8, [x20, #8]
	bfi	x20, x8, #32, #32
	tst	x20, #0xf
	b.ne	.LBB19_15
// %bb.8:                               // %"$13"
                                        //   in Loop: Header=BB19_7 Depth=1
	ldp	w1, w8, [x20]
	bfi	x1, x8, #32, #32
	tst	x1, #0x6
	b.ne	.LBB19_11
// %bb.9:                               // %"$17"
                                        //   in Loop: Header=BB19_7 Depth=1
	tbz	w1, #3, .LBB19_14
// %bb.10:                              // %"$20"
                                        //   in Loop: Header=BB19_7 Depth=1
	ldp	w1, w8, [x1]
	bfi	x1, x8, #32, #32
.LBB19_11:                              // %"$16"
                                        //   in Loop: Header=BB19_7 Depth=1
	cmp	x1, x23
	b.eq	.LBB19_16
.LBB19_12:                              // %"$21"
                                        //   in Loop: Header=BB19_7 Depth=1
	tst	x1, #0x6
	b.eq	.LBB19_18
// %bb.13:                              // %"$24"
                                        //   in Loop: Header=BB19_7 Depth=1
	lsr	x8, x1, #32
	stp	w1, w8, [x22]
	ldp	w0, w8, [x24]
	bfi	x0, x8, #32, #32
	and	x1, x1, #0xfffffffffffffff7
	bl	andu
	mov	x8, x24
	b	.LBB19_7
.LBB19_14:                              // %"$19"
                                        //   in Loop: Header=BB19_7 Depth=1
	mov	x0, x1
	bl	evList
	mov	x1, x0
	cmp	x1, x23
	b.ne	.LBB19_12
	b	.LBB19_16
.LBB19_15:                              // %"$15"
	ldp	w1, w8, [x24]
	bfi	x1, x8, #32, #32
.LBB19_16:                              // %"$14"
	ldp	w9, w8, [x22, #8]
	bfi	x9, x8, #32, #32
	str	x9, [x21, :lo12:env]
.LBB19_17:                              // %"$9"
	mov	x0, x1
	mov	sp, x29
	ldp	x20, x19, [sp, #48]             // 16-byte Folded Reload
	ldp	x22, x21, [sp, #32]             // 16-byte Folded Reload
	ldp	x24, x23, [sp, #16]             // 16-byte Folded Reload
	ldp	x29, x30, [sp], #64             // 16-byte Folded Reload
	ret
.LBB19_18:                              // %"$10"
	mov	x0, x19
	bl	numErr
.Lfunc_end19:
	.size	_bitAnd, .Lfunc_end19-_bitAnd
	.cfi_endproc
                                        // -- End function
	.globl	_bitOr                          // -- Begin function _bitOr
	.p2align	4
	.type	_bitOr,@function
_bitOr:                                 // @_bitOr
	.cfi_startproc
// %bb.0:                               // %"$1"
	stp	x29, x30, [sp, #-64]!           // 16-byte Folded Spill
	stp	x24, x23, [sp, #16]             // 16-byte Folded Spill
	stp	x22, x21, [sp, #32]             // 16-byte Folded Spill
	stp	x20, x19, [sp, #48]             // 16-byte Folded Spill
	mov	x29, sp
	.cfi_def_cfa w29, 64
	.cfi_offset w19, -8
	.cfi_offset w20, -16
	.cfi_offset w21, -24
	.cfi_offset w22, -32
	.cfi_offset w23, -40
	.cfi_offset w24, -48
	.cfi_offset w30, -56
	.cfi_offset w29, -64
	mov	x19, x0
	ldp	w20, w8, [x0, #8]
	bfi	x20, x8, #32, #32
	ldp	w1, w8, [x20]
	bfi	x1, x8, #32, #32
	tst	x1, #0x6
	b.ne	.LBB20_4
// %bb.1:                               // %"$3"
	tbz	w1, #3, .LBB20_3
// %bb.2:                               // %"$6"
	ldp	w1, w8, [x1]
	bfi	x1, x8, #32, #32
	b	.LBB20_4
.LBB20_3:                               // %"$5"
	mov	x0, x1
	bl	evList
	mov	x1, x0
.LBB20_4:                               // %"$2"
	adrp	x23, SymTab+8
	add	x23, x23, :lo12:SymTab+8
	cmp	x1, x23
	b.eq	.LBB20_17
// %bb.5:                               // %"$8"
	adrp	x21, env
	ldr	x8, [x21, :lo12:env]
	mov	x9, sp
	sub	x22, x9, #16                    // =16
	mov	sp, x22
	mov	w10, #10
	lsr	x11, x8, #32
	stp	w10, wzr, [x9, #-16]
	stp	w8, w11, [x9, #-8]
	tst	x1, #0x6
	str	x22, [x21, :lo12:env]
	b.eq	.LBB20_18
// %bb.6:                               // %"$11"
	and	x9, x1, #0xfffffffffffffff7
	mov	x10, sp
	sub	x24, x10, #16                   // =16
	mov	sp, x24
	lsr	x11, x1, #32
	adrp	x8, env
	add	x8, x8, :lo12:env
	stp	w9, w11, [x10, #-16]
	ldr	x9, [x8]
	lsr	x11, x9, #32
	stp	w9, w11, [x10, #-8]
	mov	x0, x24
.LBB20_7:                               // %"$12"
                                        // =>This Inner Loop Header: Depth=1
	lsr	x9, x0, #32
	stp	w0, w9, [x8]
	ldp	w20, w8, [x20, #8]
	bfi	x20, x8, #32, #32
	tst	x20, #0xf
	b.ne	.LBB20_15
// %bb.8:                               // %"$13"
                                        //   in Loop: Header=BB20_7 Depth=1
	ldp	w1, w8, [x20]
	bfi	x1, x8, #32, #32
	tst	x1, #0x6
	b.ne	.LBB20_11
// %bb.9:                               // %"$17"
                                        //   in Loop: Header=BB20_7 Depth=1
	tbz	w1, #3, .LBB20_14
// %bb.10:                              // %"$20"
                                        //   in Loop: Header=BB20_7 Depth=1
	ldp	w1, w8, [x1]
	bfi	x1, x8, #32, #32
.LBB20_11:                              // %"$16"
                                        //   in Loop: Header=BB20_7 Depth=1
	cmp	x1, x23
	b.eq	.LBB20_16
.LBB20_12:                              // %"$21"
                                        //   in Loop: Header=BB20_7 Depth=1
	tst	x1, #0x6
	b.eq	.LBB20_18
// %bb.13:                              // %"$24"
                                        //   in Loop: Header=BB20_7 Depth=1
	lsr	x8, x1, #32
	stp	w1, w8, [x22]
	ldp	w0, w8, [x24]
	bfi	x0, x8, #32, #32
	and	x1, x1, #0xfffffffffffffff7
	bl	oru
	mov	x8, x24
	b	.LBB20_7
.LBB20_14:                              // %"$19"
                                        //   in Loop: Header=BB20_7 Depth=1
	mov	x0, x1
	bl	evList
	mov	x1, x0
	cmp	x1, x23
	b.ne	.LBB20_12
	b	.LBB20_16
.LBB20_15:                              // %"$15"
	ldp	w1, w8, [x24]
	bfi	x1, x8, #32, #32
.LBB20_16:                              // %"$14"
	ldp	w9, w8, [x22, #8]
	bfi	x9, x8, #32, #32
	str	x9, [x21, :lo12:env]
.LBB20_17:                              // %"$9"
	mov	x0, x1
	mov	sp, x29
	ldp	x20, x19, [sp, #48]             // 16-byte Folded Reload
	ldp	x22, x21, [sp, #32]             // 16-byte Folded Reload
	ldp	x24, x23, [sp, #16]             // 16-byte Folded Reload
	ldp	x29, x30, [sp], #64             // 16-byte Folded Reload
	ret
.LBB20_18:                              // %"$10"
	mov	x0, x19
	bl	numErr
.Lfunc_end20:
	.size	_bitOr, .Lfunc_end20-_bitOr
	.cfi_endproc
                                        // -- End function
	.globl	_bitXor                         // -- Begin function _bitXor
	.p2align	4
	.type	_bitXor,@function
_bitXor:                                // @_bitXor
	.cfi_startproc
// %bb.0:                               // %"$1"
	stp	x29, x30, [sp, #-64]!           // 16-byte Folded Spill
	stp	x24, x23, [sp, #16]             // 16-byte Folded Spill
	stp	x22, x21, [sp, #32]             // 16-byte Folded Spill
	stp	x20, x19, [sp, #48]             // 16-byte Folded Spill
	mov	x29, sp
	.cfi_def_cfa w29, 64
	.cfi_offset w19, -8
	.cfi_offset w20, -16
	.cfi_offset w21, -24
	.cfi_offset w22, -32
	.cfi_offset w23, -40
	.cfi_offset w24, -48
	.cfi_offset w30, -56
	.cfi_offset w29, -64
	mov	x19, x0
	ldp	w20, w8, [x0, #8]
	bfi	x20, x8, #32, #32
	ldp	w1, w8, [x20]
	bfi	x1, x8, #32, #32
	tst	x1, #0x6
	b.ne	.LBB21_4
// %bb.1:                               // %"$3"
	tbz	w1, #3, .LBB21_3
// %bb.2:                               // %"$6"
	ldp	w1, w8, [x1]
	bfi	x1, x8, #32, #32
	b	.LBB21_4
.LBB21_3:                               // %"$5"
	mov	x0, x1
	bl	evList
	mov	x1, x0
.LBB21_4:                               // %"$2"
	adrp	x23, SymTab+8
	add	x23, x23, :lo12:SymTab+8
	cmp	x1, x23
	b.eq	.LBB21_17
// %bb.5:                               // %"$8"
	adrp	x21, env
	ldr	x8, [x21, :lo12:env]
	mov	x9, sp
	sub	x22, x9, #16                    // =16
	mov	sp, x22
	mov	w10, #10
	lsr	x11, x8, #32
	stp	w10, wzr, [x9, #-16]
	stp	w8, w11, [x9, #-8]
	tst	x1, #0x6
	str	x22, [x21, :lo12:env]
	b.eq	.LBB21_18
// %bb.6:                               // %"$11"
	and	x9, x1, #0xfffffffffffffff7
	mov	x10, sp
	sub	x24, x10, #16                   // =16
	mov	sp, x24
	lsr	x11, x1, #32
	adrp	x8, env
	add	x8, x8, :lo12:env
	stp	w9, w11, [x10, #-16]
	ldr	x9, [x8]
	lsr	x11, x9, #32
	stp	w9, w11, [x10, #-8]
	mov	x0, x24
.LBB21_7:                               // %"$12"
                                        // =>This Inner Loop Header: Depth=1
	lsr	x9, x0, #32
	stp	w0, w9, [x8]
	ldp	w20, w8, [x20, #8]
	bfi	x20, x8, #32, #32
	tst	x20, #0xf
	b.ne	.LBB21_15
// %bb.8:                               // %"$13"
                                        //   in Loop: Header=BB21_7 Depth=1
	ldp	w1, w8, [x20]
	bfi	x1, x8, #32, #32
	tst	x1, #0x6
	b.ne	.LBB21_11
// %bb.9:                               // %"$17"
                                        //   in Loop: Header=BB21_7 Depth=1
	tbz	w1, #3, .LBB21_14
// %bb.10:                              // %"$20"
                                        //   in Loop: Header=BB21_7 Depth=1
	ldp	w1, w8, [x1]
	bfi	x1, x8, #32, #32
.LBB21_11:                              // %"$16"
                                        //   in Loop: Header=BB21_7 Depth=1
	cmp	x1, x23
	b.eq	.LBB21_16
.LBB21_12:                              // %"$21"
                                        //   in Loop: Header=BB21_7 Depth=1
	tst	x1, #0x6
	b.eq	.LBB21_18
// %bb.13:                              // %"$24"
                                        //   in Loop: Header=BB21_7 Depth=1
	lsr	x8, x1, #32
	stp	w1, w8, [x22]
	ldp	w0, w8, [x24]
	bfi	x0, x8, #32, #32
	and	x1, x1, #0xfffffffffffffff7
	bl	xoru
	mov	x8, x24
	b	.LBB21_7
.LBB21_14:                              // %"$19"
                                        //   in Loop: Header=BB21_7 Depth=1
	mov	x0, x1
	bl	evList
	mov	x1, x0
	cmp	x1, x23
	b.ne	.LBB21_12
	b	.LBB21_16
.LBB21_15:                              // %"$15"
	ldp	w1, w8, [x24]
	bfi	x1, x8, #32, #32
.LBB21_16:                              // %"$14"
	ldp	w9, w8, [x22, #8]
	bfi	x9, x8, #32, #32
	str	x9, [x21, :lo12:env]
.LBB21_17:                              // %"$9"
	mov	x0, x1
	mov	sp, x29
	ldp	x20, x19, [sp, #48]             // 16-byte Folded Reload
	ldp	x22, x21, [sp, #32]             // 16-byte Folded Reload
	ldp	x24, x23, [sp, #16]             // 16-byte Folded Reload
	ldp	x29, x30, [sp], #64             // 16-byte Folded Reload
	ret
.LBB21_18:                              // %"$10"
	mov	x0, x19
	bl	numErr
.Lfunc_end21:
	.size	_bitXor, .Lfunc_end21-_bitXor
	.cfi_endproc
                                        // -- End function
	.globl	_sqrt                           // -- Begin function _sqrt
	.p2align	4
	.type	_sqrt,@function
_sqrt:                                  // @_sqrt
	.cfi_startproc
// %bb.0:                               // %"$1"
	stp	x29, x30, [sp, #-96]!           // 16-byte Folded Spill
	stp	x28, x27, [sp, #16]             // 16-byte Folded Spill
	stp	x26, x25, [sp, #32]             // 16-byte Folded Spill
	stp	x24, x23, [sp, #48]             // 16-byte Folded Spill
	stp	x22, x21, [sp, #64]             // 16-byte Folded Spill
	stp	x20, x19, [sp, #80]             // 16-byte Folded Spill
	mov	x29, sp
	.cfi_def_cfa w29, 96
	.cfi_offset w19, -8
	.cfi_offset w20, -16
	.cfi_offset w21, -24
	.cfi_offset w22, -32
	.cfi_offset w23, -40
	.cfi_offset w24, -48
	.cfi_offset w25, -56
	.cfi_offset w26, -64
	.cfi_offset w27, -72
	.cfi_offset w28, -80
	.cfi_offset w30, -88
	.cfi_offset w29, -96
	mov	x19, x0
	ldp	w21, w8, [x0, #8]
	bfi	x21, x8, #32, #32
	ldp	w20, w8, [x21]
	bfi	x20, x8, #32, #32
	tst	x20, #0x6
	b.ne	.LBB22_4
// %bb.1:                               // %"$3"
	tbz	w20, #3, .LBB22_3
// %bb.2:                               // %"$6"
	ldp	w20, w8, [x20]
	bfi	x20, x8, #32, #32
	b	.LBB22_4
.LBB22_3:                               // %"$5"
	mov	x0, x20
	bl	evList
	mov	x20, x0
.LBB22_4:                               // %"$2"
	adrp	x23, SymTab+8
	add	x23, x23, :lo12:SymTab+8
	cmp	x20, x23
	b.eq	.LBB22_31
// %bb.5:                               // %"$8"
	tst	x20, #0x6
	b.eq	.LBB22_32
// %bb.6:                               // %"$11"
	tbnz	w20, #3, .LBB22_33
// %bb.7:                               // %"$13"
	adrp	x22, env
	ldr	x8, [x22, :lo12:env]
	mov	x9, sp
	sub	x25, x9, #16                    // =16
	mov	sp, x25
	lsr	x10, x20, #32
	stp	w20, w10, [x9, #-16]
	lsr	x10, x8, #32
	stp	w8, w10, [x9, #-8]
	str	x25, [x22, :lo12:env]
	ldp	w9, w8, [x21, #8]
	bfi	x9, x8, #32, #32
	ldp	w19, w8, [x9]
	bfi	x19, x8, #32, #32
	tst	x19, #0x6
	b.ne	.LBB22_11
// %bb.8:                               // %"$15"
	tbz	w19, #3, .LBB22_10
// %bb.9:                               // %"$18"
	ldp	w19, w8, [x19]
	bfi	x19, x8, #32, #32
	b	.LBB22_11
.LBB22_10:                              // %"$17"
	mov	x0, x19
	bl	evList
	mov	x19, x0
.LBB22_11:                              // %"$14"
	ldr	x8, [x22, :lo12:env]
	mov	x9, sp
	sub	x10, x9, #16                    // =16
	mov	sp, x10
	lsr	x11, x19, #32
	lsr	x12, x8, #32
	stp	w19, w11, [x9, #-16]
	stp	w8, w12, [x9, #-8]
	tst	x19, #0x6
	str	x10, [x22, :lo12:env]
	b.eq	.LBB22_13
// %bb.12:                              // %"$19"
	mov	x0, x20
	mov	x1, x19
	bl	mulu
	mov	x20, x0
	lsr	x8, x0, #32
	stp	w20, w8, [x25]
.LBB22_13:                              // %"$20"
	tbz	w20, #1, .LBB22_17
// %bb.14:                              // %"$21"
	mov	x8, xzr
	lsr	x9, x20, #4
	mov	x10, #288230376151711744
.LBB22_15:                              // %"$24"
                                        // =>This Inner Loop Header: Depth=1
	add	x11, x8, x10
	subs	x12, x9, x11
	add	x11, x11, x10
	csel	x9, x9, x12, lo
	csel	x8, x8, x11, lo
	lsr	x8, x8, #1
	lsr	x10, x10, #2
	cbnz	x10, .LBB22_15
// %bb.16:                              // %"$28"
	cmp	x8, x9
	cinc	x9, x8, lo
	cmp	x19, x23
	csel	x8, x8, x9, eq
	mov	w20, #2
	bfi	x20, x8, #4, #60
	b	.LBB22_30
.LBB22_17:                              // %"$22"
	mov	x0, xzr
	mov	w1, #18
	bl	consNum
	mov	x21, x0
	mov	x8, sp
	sub	x24, x8, #16                    // =16
	mov	sp, x24
	lsr	x9, x0, #32
	adrp	x27, env
	add	x27, x27, :lo12:env
	stp	w21, w9, [x8, #-16]
	ldr	x9, [x27]
	lsr	x10, x9, #32
	stp	w9, w10, [x8, #-8]
	str	x24, [x27]
	mov	x8, sp
	sub	x28, x8, #16                    // =16
	mov	sp, x28
	mov	w9, #2
	stp	w9, wzr, [x8, #-16]
	ldr	x9, [x27]
	lsr	x10, x9, #32
	stp	w9, w10, [x8, #-8]
	str	x28, [x27]
	ldp	w0, w8, [x20, #-4]
	bfi	x0, x8, #32, #32
	bl	boxNum
	mov	x22, x0
	mov	x8, sp
	sub	x26, x8, #16                    // =16
	mov	sp, x26
	lsr	x9, x0, #32
	stp	w22, w9, [x8, #-16]
	ldr	x9, [x27]
	lsr	x10, x9, #32
	stp	w9, w10, [x8, #-8]
	mov	x0, x26
.LBB22_18:                              // %"$32"
                                        // =>This Inner Loop Header: Depth=1
	lsr	x8, x0, #32
	stp	w0, w8, [x27]
	ldp	w20, w8, [x20, #4]
	bfi	x20, x8, #32, #32
	tbz	w20, #2, .LBB22_20
// %bb.19:                              // %"$33"
                                        //   in Loop: Header=BB22_18 Depth=1
	ldp	w0, w8, [x20, #-4]
	bfi	x0, x8, #32, #32
	bl	boxNum
	mov	x23, x0
	lsr	x8, x0, #32
	stp	w23, w8, [x22, #4]
	mov	x0, xzr
	mov	x1, x21
	bl	consNum
	mov	x27, x24
	mov	x21, x0
	mov	x22, x23
	b	.LBB22_18
.LBB22_20:                              // %"$34"
	lsr	x8, x20, #32
	stp	w20, w8, [x22, #4]
	ldp	w22, w8, [x26]
	stp	w22, w8, [x25]
	bfi	x22, x8, #32, #32
	adrp	x23, SymTab+8
	add	x23, x23, :lo12:SymTab+8
.LBB22_21:                              // %"$35"
                                        // =>This Inner Loop Header: Depth=1
	mov	x0, x21
	mov	x1, x22
	bl	cmpu
	cmp	x0, #1                          // =1
	b.ge	.LBB22_24
// %bb.22:                              // %"$36"
                                        //   in Loop: Header=BB22_21 Depth=1
	mov	x0, x21
	bl	twiceBig
	mov	x0, x21
	bl	twiceBig
	b	.LBB22_21
.LBB22_23:                              // %"$40"
                                        //   in Loop: Header=BB22_24 Depth=1
	ldp	w0, w8, [x28]
	bfi	x0, x8, #32, #32
	bl	half
	lsr	x8, x0, #32
	stp	w0, w8, [x28]
	mov	x0, x21
	bl	half
	bl	half
	mov	x21, x0
	lsr	x8, x0, #32
	stp	w21, w8, [x24]
	cmp	x0, #2                          // =2
	b.eq	.LBB22_26
.LBB22_24:                              // %"$38"
                                        // =>This Inner Loop Header: Depth=1
	ldp	w0, w8, [x28]
	bfi	x0, x8, #32, #32
	mov	x1, x21
	bl	addu
	mov	x20, x0
	lsr	x8, x0, #32
	stp	w20, w8, [x26]
	mov	x0, x22
	mov	x1, x20
	bl	cmpu
	tbnz	x0, #63, .LBB22_23
// %bb.25:                              // %"$39"
                                        //   in Loop: Header=BB22_24 Depth=1
	mov	x0, x22
	mov	x1, x20
	bl	subu
	mov	x22, x0
	lsr	x8, x0, #32
	stp	w22, w8, [x25]
	mov	x0, x20
	mov	x1, x21
	bl	addu
	lsr	x8, x0, #32
	stp	w0, w8, [x28]
	b	.LBB22_23
.LBB22_26:                              // %"$42"
	ldp	w20, w8, [x28]
	bfi	x20, x8, #32, #32
	cmp	x19, x23
	b.ne	.LBB22_28
// %bb.27:
	mov	w8, #1
	adrp	x22, env
	tbz	w8, #0, .LBB22_29
	b	.LBB22_30
.LBB22_28:                              // %"$44"
	mov	x0, x20
	mov	x1, x22
	bl	cmpu
	lsr	x8, x0, #63
	eor	w8, w8, #0x1
	adrp	x22, env
	tbnz	w8, #0, .LBB22_30
.LBB22_29:                              // %"$46"
	mov	x0, x20
	mov	w1, #18
	bl	addu
	mov	x20, x0
.LBB22_30:                              // %"$23"
	ldp	w9, w8, [x25, #8]
	bfi	x9, x8, #32, #32
	str	x9, [x22, :lo12:env]
.LBB22_31:                              // %"$9"
	mov	x0, x20
	mov	sp, x29
	ldp	x20, x19, [sp, #80]             // 16-byte Folded Reload
	ldp	x22, x21, [sp, #64]             // 16-byte Folded Reload
	ldp	x24, x23, [sp, #48]             // 16-byte Folded Reload
	ldp	x26, x25, [sp, #32]             // 16-byte Folded Reload
	ldp	x28, x27, [sp, #16]             // 16-byte Folded Reload
	ldp	x29, x30, [sp], #96             // 16-byte Folded Reload
	ret
.LBB22_32:                              // %"$10"
	mov	x0, x19
	mov	x1, x20
	bl	numErr
.LBB22_33:                              // %"$12"
	mov	x0, x19
	mov	x1, x20
	bl	argErr
.Lfunc_end22:
	.size	_sqrt, .Lfunc_end22-_sqrt
	.cfi_endproc
                                        // -- End function
	.globl	_seed                           // -- Begin function _seed
	.p2align	4
	.type	_seed,@function
_seed:                                  // @_seed
	.cfi_startproc
// %bb.0:                               // %"$1"
	str	x30, [sp, #-16]!                // 8-byte Folded Spill
	.cfi_def_cfa_offset 16
	.cfi_offset w30, -16
	ldp	w9, w8, [x0, #8]
	bfi	x9, x8, #32, #32
	ldp	w0, w8, [x9]
	bfi	x0, x8, #32, #32
	tst	x0, #0x6
	b.ne	.LBB23_4
// %bb.1:                               // %"$3"
	tbz	w0, #3, .LBB23_3
// %bb.2:                               // %"$6"
	ldp	w0, w8, [x0]
	bfi	x0, x8, #32, #32
	b	.LBB23_4
.LBB23_3:                               // %"$5"
	bl	evList
.LBB23_4:                               // %"$2"
	bl	initSeed
	mov	x8, #32557
	movk	x8, #19605, lsl #16
	movk	x8, #62509, lsl #32
	movk	x8, #22609, lsl #48
	umulh	x9, x0, x8
	mul	x8, x0, x8
	adrp	x10, ($SeedL)
	str	x8, [x10, :lo12:($SeedL)]
	adrp	x10, ($SeedH)
	str	x9, [x10, :lo12:($SeedH)]
	lsr	x8, x8, #29
	and	x8, x8, #0x7fffffff8
	orr	x0, x8, #0x2
	ldr	x30, [sp], #16                  // 8-byte Folded Reload
	ret
.Lfunc_end23:
	.size	_seed, .Lfunc_end23-_seed
	.cfi_endproc
                                        // -- End function
	.globl	_hash                           // -- Begin function _hash
	.p2align	4
	.type	_hash,@function
_hash:                                  // @_hash
	.cfi_startproc
// %bb.0:                               // %"$1"
	str	x30, [sp, #-16]!                // 8-byte Folded Spill
	.cfi_def_cfa_offset 16
	.cfi_offset w30, -16
	ldp	w9, w8, [x0, #8]
	bfi	x9, x8, #32, #32
	ldp	w0, w8, [x9]
	bfi	x0, x8, #32, #32
	tst	x0, #0x6
	b.ne	.LBB24_4
// %bb.1:                               // %"$3"
	tbz	w0, #3, .LBB24_3
// %bb.2:                               // %"$6"
	ldp	w0, w8, [x0]
	bfi	x0, x8, #32, #32
	b	.LBB24_4
.LBB24_3:                               // %"$5"
	bl	evList
.LBB24_4:                               // %"$2"
	bl	initSeed
	mov	x8, xzr
	mov	w9, #64
	mov	w10, #16386
	movk	w10, #1, lsl #16
.LBB24_5:                               // %"$7"
                                        // =>This Inner Loop Header: Depth=1
	eor	w11, w0, w8
	eor	x12, x8, x10
	tst	w11, #0x1
	csel	x8, x8, x12, eq
	lsr	x0, x0, #1
	lsr	x8, x8, #1
	subs	x9, x9, #1                      // =1
	b.ne	.LBB24_5
// %bb.6:                               // %"$11"
	lsl	x8, x8, #4
	add	x0, x8, #18                     // =18
	ldr	x30, [sp], #16                  // 8-byte Folded Reload
	ret
.Lfunc_end24:
	.size	_hash, .Lfunc_end24-_hash
	.cfi_endproc
                                        // -- End function
	.globl	_rand                           // -- Begin function _rand
	.p2align	4
	.type	_rand,@function
_rand:                                  // @_rand
	.cfi_startproc
// %bb.0:                               // %"$1"
	stp	x30, x23, [sp, #-48]!           // 16-byte Folded Spill
	stp	x22, x21, [sp, #16]             // 16-byte Folded Spill
	stp	x20, x19, [sp, #32]             // 16-byte Folded Spill
	.cfi_def_cfa_offset 48
	.cfi_offset w19, -8
	.cfi_offset w20, -16
	.cfi_offset w21, -24
	.cfi_offset w22, -32
	.cfi_offset w23, -40
	.cfi_offset w30, -48
	mov	x19, x0
	ldp	w9, w8, [x0, #8]
	bfi	x9, x8, #32, #32
	ldp	w1, w8, [x9]
	bfi	x1, x8, #32, #32
	ldp	w20, w21, [x9, #8]
	tst	x1, #0x6
	b.ne	.LBB25_4
// %bb.1:                               // %"$3"
	tbz	w1, #3, .LBB25_3
// %bb.2:                               // %"$6"
	ldp	w1, w8, [x1]
	bfi	x1, x8, #32, #32
	b	.LBB25_4
.LBB25_3:                               // %"$5"
	mov	x0, x1
	bl	evList
	mov	x1, x0
.LBB25_4:                               // %"$2"
	adrp	x22, ($SeedL)
	adrp	x23, ($SeedH)
	ldr	x8, [x22, :lo12:($SeedL)]
	mov	x9, #32557
	movk	x9, #19605, lsl #16
	movk	x9, #62509, lsl #32
	movk	x9, #22609, lsl #48
	umulh	x10, x8, x9
	mul	x8, x8, x9
	adds	x8, x8, #1                      // =1
	str	x8, [x22, :lo12:($SeedL)]
	cinc	x9, x10, hs
	str	x9, [x23, :lo12:($SeedH)]
	adrp	x9, SymTab+8
	add	x9, x9, :lo12:SymTab+8
	cmp	x1, x9
	b.ne	.LBB25_6
// %bb.5:                               // %"$9"
	lsr	x8, x8, #29
	and	x8, x8, #0x7fffffff8
	orr	x1, x8, #0x2
	b	.LBB25_12
.LBB25_6:                               // %"$8"
	adrp	x9, SymTab+216
	add	x9, x9, :lo12:SymTab+216
	cmp	x1, x9
	b.ne	.LBB25_9
// %bb.7:                               // %"$11"
	cmn	x8, x8
	b.hs	.LBB25_12
// %bb.8:                               // %"$13"
	adrp	x1, SymTab+8
	add	x1, x1, :lo12:SymTab+8
	b	.LBB25_12
.LBB25_9:                               // %"$10"
	bfi	x20, x21, #32, #32
	mov	x0, x19
	bl	xCnt
	mov	x21, x0
	mov	x0, x19
	mov	x1, x20
	bl	evCnt
	ldr	x8, [x23, :lo12:($SeedH)]
	ldr	x9, [x22, :lo12:($SeedL)]
	extr	x8, x8, x9, #32
	sub	x9, x0, x21
	add	x9, x9, #1                      // =1
	udiv	x10, x8, x9
	msub	x8, x10, x9, x8
	adds	x8, x8, x21
	b.mi	.LBB25_11
// %bb.10:                              // %"$16"
	mov	w1, #2
	bfi	x1, x8, #4, #60
	b	.LBB25_12
.LBB25_11:                              // %"$15"
	mov	w9, #10
	sub	x1, x9, x8, lsl #4
.LBB25_12:                              // %"$7"
	mov	x0, x1
	ldp	x20, x19, [sp, #32]             // 16-byte Folded Reload
	ldp	x22, x21, [sp, #16]             // 16-byte Folded Reload
	ldp	x30, x23, [sp], #48             // 16-byte Folded Reload
	ret
.Lfunc_end25:
	.size	_rand, .Lfunc_end25-_rand
	.cfi_endproc
                                        // -- End function
	.globl	_name                           // -- Begin function _name
	.p2align	4
	.type	_name,@function
_name:                                  // @_name
	.cfi_startproc
// %bb.0:                               // %"$1"
	stp	x29, x30, [sp, #-32]!           // 16-byte Folded Spill
	stp	x20, x19, [sp, #16]             // 16-byte Folded Spill
	mov	x29, sp
	.cfi_def_cfa w29, 32
	.cfi_offset w19, -8
	.cfi_offset w20, -16
	.cfi_offset w30, -24
	.cfi_offset w29, -32
	mov	x19, x0
	ldp	w9, w8, [x0, #8]
	bfi	x9, x8, #32, #32
	ldp	w1, w8, [x9]
	bfi	x1, x8, #32, #32
	tst	x1, #0x6
	b.ne	.LBB26_4
// %bb.1:                               // %"$3"
	tbz	w1, #3, .LBB26_3
// %bb.2:                               // %"$6"
	ldp	w1, w8, [x1]
	bfi	x1, x8, #32, #32
	b	.LBB26_4
.LBB26_3:                               // %"$5"
	mov	x0, x1
	bl	evList
	mov	x1, x0
.LBB26_4:                               // %"$2"
	eor	w8, w1, #0x8
	tst	x8, #0xe
	b.ne	.LBB26_13
// %bb.5:                               // %"$8"
	ldp	w0, w8, [x1, #-8]
	bfi	x0, x8, #32, #32
	tbz	w0, #3, .LBB26_9
// %bb.6:                               // %"$9"
	mov	x8, sp
	sub	x19, x8, #32                    // =32
	mov	sp, x19
	mov	w9, #4
	stp	w9, wzr, [x8, #-32]
	stur	wzr, [x8, #-12]
	mov	w9, #2
	mov	x10, x19
	str	w9, [x10, #16]!
	adrp	x20, env
	ldr	x9, [x20, :lo12:env]
	lsr	x11, x9, #32
	stp	w9, w11, [x8, #-8]
	str	x10, [x20, :lo12:env]
	tst	x0, #0x6
	b.ne	.LBB26_8
.LBB26_7:                               // %"$13"
                                        // =>This Inner Loop Header: Depth=1
	ldp	w0, w8, [x0, #8]
	bfi	x0, x8, #32, #32
	tst	x0, #0x6
	b.eq	.LBB26_7
.LBB26_8:                               // %"$14"
	and	x0, x0, #0xfffffffffffffff7
	mov	x1, x19
	bl	packExtNm
	ldp	w0, w8, [x19, #16]
	bfi	x0, x8, #32, #32
	bl	consStr
	ldp	w9, w8, [x19, #24]
	bfi	x9, x8, #32, #32
	str	x9, [x20, :lo12:env]
	b	.LBB26_12
.LBB26_9:                               // %"$15"
                                        // =>This Inner Loop Header: Depth=1
	tst	x0, #0x6
	b.ne	.LBB26_11
// %bb.10:                              // %"$16"
                                        //   in Loop: Header=BB26_9 Depth=1
	ldp	w0, w8, [x0, #8]
	bfi	x0, x8, #32, #32
	b	.LBB26_9
.LBB26_11:                              // %"$17"
	bl	consStr
.LBB26_12:                              // %"$11"
	mov	sp, x29
	ldp	x20, x19, [sp, #16]             // 16-byte Folded Reload
	ldp	x29, x30, [sp], #32             // 16-byte Folded Reload
	ret
.LBB26_13:                              // %"$7"
	mov	x0, x19
	bl	symErr
.Lfunc_end26:
	.size	_name, .Lfunc_end26-_name
	.cfi_endproc
                                        // -- End function
	.globl	_nsp                            // -- Begin function _nsp
	.p2align	4
	.type	_nsp,@function
_nsp:                                   // @_nsp
	.cfi_startproc
// %bb.0:                               // %"$1"
	stp	x30, x23, [sp, #-48]!           // 16-byte Folded Spill
	stp	x22, x21, [sp, #16]             // 16-byte Folded Spill
	stp	x20, x19, [sp, #32]             // 16-byte Folded Spill
	.cfi_def_cfa_offset 48
	.cfi_offset w19, -8
	.cfi_offset w20, -16
	.cfi_offset w21, -24
	.cfi_offset w22, -32
	.cfi_offset w23, -40
	.cfi_offset w30, -48
	mov	x20, x0
	ldp	w9, w8, [x0, #8]
	bfi	x9, x8, #32, #32
	ldp	w19, w8, [x9]
	bfi	x19, x8, #32, #32
	tst	x19, #0x6
	b.ne	.LBB27_4
// %bb.1:                               // %"$3"
	tbz	w19, #3, .LBB27_3
// %bb.2:                               // %"$6"
	ldp	w19, w8, [x19]
	bfi	x19, x8, #32, #32
	b	.LBB27_4
.LBB27_3:                               // %"$5"
	mov	x0, x19
	bl	evList
	mov	x19, x0
.LBB27_4:                               // %"$2"
	eor	w8, w19, #0x8
	tst	x8, #0xe
	b.ne	.LBB27_15
// %bb.5:                               // %"$8"
	ldp	w20, w8, [x19, #-8]
	bfi	x20, x8, #32, #32
	tbz	w20, #3, .LBB27_7
// %bb.6:
	adrp	x21, SymTab+8
	add	x21, x21, :lo12:SymTab+8
	b	.LBB27_14
.LBB27_7:                               // %"$12"
                                        // =>This Inner Loop Header: Depth=1
	tst	x20, #0x6
	b.ne	.LBB27_9
// %bb.8:                               // %"$13"
                                        //   in Loop: Header=BB27_7 Depth=1
	ldp	w20, w8, [x20, #8]
	bfi	x20, x8, #32, #32
	b	.LBB27_7
.LBB27_9:                               // %"$14"
	adrp	x8, env+88
	add	x8, x8, :lo12:env+88
	adrp	x21, SymTab+8
	add	x21, x21, :lo12:SymTab+8
.LBB27_10:                              // %"$15"
                                        // =>This Inner Loop Header: Depth=1
	ldp	w22, w9, [x8]
	bfi	x22, x9, #32, #32
	tst	x22, #0xf
	b.ne	.LBB27_14
// %bb.11:                              // %"$16"
                                        //   in Loop: Header=BB27_10 Depth=1
	ldp	w23, w8, [x22]
	bfi	x23, x8, #32, #32
	ldp	w9, w8, [x23]
	bfi	x9, x8, #32, #32
	ldp	w1, w8, [x9, #8]
	bfi	x1, x8, #32, #32
	mov	x0, x20
	bl	isIntern
	cmp	x19, x0
	b.eq	.LBB27_13
// %bb.12:                              // %"$19"
                                        //   in Loop: Header=BB27_10 Depth=1
	add	x8, x22, #8                     // =8
	b	.LBB27_10
.LBB27_13:
	mov	x21, x23
.LBB27_14:                              // %"$11"
	mov	x0, x21
	ldp	x20, x19, [sp, #32]             // 16-byte Folded Reload
	ldp	x22, x21, [sp, #16]             // 16-byte Folded Reload
	ldp	x30, x23, [sp], #48             // 16-byte Folded Reload
	ret
.LBB27_15:                              // %"$7"
	mov	x0, x20
	mov	x1, x19
	bl	symErr
.Lfunc_end27:
	.size	_nsp, .Lfunc_end27-_nsp
	.cfi_endproc
                                        // -- End function
	.globl	_spQ                            // -- Begin function _spQ
	.p2align	4
	.type	_spQ,@function
_spQ:                                   // @_spQ
	.cfi_startproc
// %bb.0:                               // %"$1"
	str	x30, [sp, #-16]!                // 8-byte Folded Spill
	.cfi_def_cfa_offset 16
	.cfi_offset w30, -16
	ldp	w9, w8, [x0, #8]
	bfi	x9, x8, #32, #32
	ldp	w0, w8, [x9]
	bfi	x0, x8, #32, #32
	tst	x0, #0x6
	b.ne	.LBB28_4
// %bb.1:                               // %"$3"
	tbz	w0, #3, .LBB28_3
// %bb.2:                               // %"$6"
	ldp	w0, w8, [x0]
	bfi	x0, x8, #32, #32
	b	.LBB28_4
.LBB28_3:                               // %"$5"
	bl	evList
.LBB28_4:                               // %"$2"
	bl	isBlank
	adrp	x8, SymTab+8
	add	x8, x8, :lo12:SymTab+8
	add	x9, x8, #208                    // =208
	tst	w0, #0x1
	csel	x0, x9, x8, ne
	ldr	x30, [sp], #16                  // 8-byte Folded Reload
	ret
.Lfunc_end28:
	.size	_spQ, .Lfunc_end28-_spQ
	.cfi_endproc
                                        // -- End function
	.globl	_patQ                           // -- Begin function _patQ
	.p2align	4
	.type	_patQ,@function
_patQ:                                  // @_patQ
	.cfi_startproc
// %bb.0:                               // %"$1"
	stp	x30, x19, [sp, #-16]!           // 16-byte Folded Spill
	.cfi_def_cfa_offset 16
	.cfi_offset w19, -8
	.cfi_offset w30, -16
	ldp	w9, w8, [x0, #8]
	bfi	x9, x8, #32, #32
	ldp	w19, w8, [x9]
	bfi	x19, x8, #32, #32
	tst	x19, #0x6
	b.ne	.LBB29_4
// %bb.1:                               // %"$3"
	tbz	w19, #3, .LBB29_3
// %bb.2:                               // %"$6"
	ldp	w19, w8, [x19]
	bfi	x19, x8, #32, #32
	b	.LBB29_4
.LBB29_3:                               // %"$5"
	mov	x0, x19
	bl	evList
	mov	x19, x0
.LBB29_4:                               // %"$2"
	eor	w8, w19, #0x8
	tst	x8, #0xe
	b.eq	.LBB29_6
// %bb.5:
	mov	w8, wzr
	b	.LBB29_7
.LBB29_6:                               // %"$8"
	mov	x0, x19
	bl	firstChar
	cmp	w0, #64                         // =64
	cset	w8, eq
.LBB29_7:                               // %"$7"
	adrp	x9, SymTab+8
	add	x9, x9, :lo12:SymTab+8
	cmp	w8, #0                          // =0
	csel	x0, x19, x9, ne
	ldp	x30, x19, [sp], #16             // 16-byte Folded Reload
	ret
.Lfunc_end29:
	.size	_patQ, .Lfunc_end29-_patQ
	.cfi_endproc
                                        // -- End function
	.globl	_funQ                           // -- Begin function _funQ
	.p2align	4
	.type	_funQ,@function
_funQ:                                  // @_funQ
	.cfi_startproc
// %bb.0:                               // %"$1"
	str	x30, [sp, #-16]!                // 8-byte Folded Spill
	.cfi_def_cfa_offset 16
	.cfi_offset w30, -16
	ldp	w9, w8, [x0, #8]
	bfi	x9, x8, #32, #32
	ldp	w0, w8, [x9]
	bfi	x0, x8, #32, #32
	tst	x0, #0x6
	b.ne	.LBB30_4
// %bb.1:                               // %"$3"
	tbz	w0, #3, .LBB30_3
// %bb.2:                               // %"$6"
	ldp	w0, w8, [x0]
	bfi	x0, x8, #32, #32
	b	.LBB30_4
.LBB30_3:                               // %"$5"
	bl	evList
.LBB30_4:                               // %"$2"
	bl	funq
	adrp	x8, SymTab+8
	add	x8, x8, :lo12:SymTab+8
	cmp	x0, #0                          // =0
	csel	x0, x0, x8, ne
	ldr	x30, [sp], #16                  // 8-byte Folded Reload
	ret
.Lfunc_end30:
	.size	_funQ, .Lfunc_end30-_funQ
	.cfi_endproc
                                        // -- End function
	.globl	_getd                           // -- Begin function _getd
	.p2align	4
	.type	_getd,@function
_getd:                                  // @_getd
	.cfi_startproc
// %bb.0:                               // %"$1"
	stp	x30, x21, [sp, #-32]!           // 16-byte Folded Spill
	stp	x20, x19, [sp, #16]             // 16-byte Folded Spill
	.cfi_def_cfa_offset 32
	.cfi_offset w19, -8
	.cfi_offset w20, -16
	.cfi_offset w21, -24
	.cfi_offset w30, -32
	ldp	w9, w8, [x0, #8]
	bfi	x9, x8, #32, #32
	ldp	w19, w8, [x9]
	bfi	x19, x8, #32, #32
	tst	x19, #0x6
	b.ne	.LBB31_4
// %bb.1:                               // %"$3"
	tbz	w19, #3, .LBB31_3
// %bb.2:                               // %"$6"
	ldp	w19, w8, [x19]
	bfi	x19, x8, #32, #32
	b	.LBB31_4
.LBB31_3:                               // %"$5"
	mov	x0, x19
	bl	evList
	mov	x19, x0
.LBB31_4:                               // %"$2"
	eor	w8, w19, #0x8
	tst	x8, #0xe
	adrp	x21, SymTab+8
	add	x21, x21, :lo12:SymTab+8
	b.ne	.LBB31_9
// %bb.5:                               // %"$8"
	ldp	w20, w8, [x19]
	bfi	x20, x8, #32, #32
	mov	x0, x20
	bl	funq
	cbnz	x0, .LBB31_12
// %bb.6:                               // %"$10"
	cmp	x20, x21
	b.ne	.LBB31_10
// %bb.7:                               // %"$13"
	mov	x0, x19
	bl	sharedLib
	tbnz	w0, #0, .LBB31_11
.LBB31_8:
	adrp	x20, SymTab+8
	add	x20, x20, :lo12:SymTab+8
	b	.LBB31_12
.LBB31_9:
	mov	x20, x21
	b	.LBB31_12
.LBB31_10:
	mov	w0, wzr
	tbz	w0, #0, .LBB31_8
.LBB31_11:                              // %"$15"
	ldp	w20, w8, [x19]
	bfi	x20, x8, #32, #32
.LBB31_12:                              // %"$7"
	mov	x0, x20
	ldp	x20, x19, [sp, #16]             // 16-byte Folded Reload
	ldp	x30, x21, [sp], #32             // 16-byte Folded Reload
	ret
.Lfunc_end31:
	.size	_getd, .Lfunc_end31-_getd
	.cfi_endproc
                                        // -- End function
	.globl	_all                            // -- Begin function _all
	.p2align	4
	.type	_all,@function
_all:                                   // @_all
	.cfi_startproc
// %bb.0:                               // %"$1"
	str	x30, [sp, #-32]!                // 8-byte Folded Spill
	stp	x20, x19, [sp, #16]             // 16-byte Folded Spill
	.cfi_def_cfa_offset 32
	.cfi_offset w19, -8
	.cfi_offset w20, -16
	.cfi_offset w30, -32
	ldp	w9, w8, [x0, #8]
	bfi	x9, x8, #32, #32
	ldp	w1, w8, [x9]
	bfi	x1, x8, #32, #32
	tst	x1, #0x6
	b.ne	.LBB32_4
// %bb.1:                               // %"$3"
	tbz	w1, #3, .LBB32_3
// %bb.2:                               // %"$6"
	ldp	w1, w8, [x1]
	bfi	x1, x8, #32, #32
	b	.LBB32_4
.LBB32_3:                               // %"$5"
	mov	x0, x1
	bl	evList
	mov	x1, x0
.LBB32_4:                               // %"$2"
	adrp	x8, SymTab+8
	add	x8, x8, :lo12:SymTab+8
	cmp	x1, x8
	b.ne	.LBB32_7
// %bb.5:                               // %"$9"
	adrp	x8, env+88
	ldr	x20, [x8, :lo12:env+88]
.LBB32_6:                               // %"$10"
                                        // =>This Inner Loop Header: Depth=1
	ldp	w9, w8, [x20]
	bfi	x9, x8, #32, #32
	ldp	w20, w8, [x20, #8]
	bfi	x20, x8, #32, #32
	ldp	w9, w8, [x9]
	bfi	x9, x8, #32, #32
	ldp	w9, w8, [x9, #8]
	bfi	x9, x8, #32, #32
	ldp	w19, w8, [x9]
	bfi	x19, x8, #32, #32
	ldp	w0, w8, [x9, #8]
	bfi	x0, x8, #32, #32
	bl	consTree
	mov	x1, x0
	mov	x0, x19
	bl	consTree
	mov	x1, x0
	tst	x20, #0xf
	b.eq	.LBB32_6
	b	.LBB32_13
.LBB32_7:                               // %"$8"
	adrp	x9, SymTab+216
	add	x9, x9, :lo12:SymTab+216
	cmp	x1, x9
	b.ne	.LBB32_10
// %bb.8:                               // %"$15"
	adrp	x8, gcData
	add	x8, x8, :lo12:gcData
	ldp	x19, x0, [x8]
.LBB32_9:                               // %"$7"
	adrp	x1, SymTab+8
	add	x1, x1, :lo12:SymTab+8
	bl	consTree
	mov	x1, x0
	mov	x0, x19
	b	.LBB32_12
.LBB32_10:                              // %"$14"
	tst	x1, #0x6
	b.eq	.LBB32_14
// %bb.11:                              // %"$17"
	adrp	x8, ($Extern)
	ldr	x0, [x8, :lo12:($Extern)]
	adrp	x1, SymTab+8
	add	x1, x1, :lo12:SymTab+8
.LBB32_12:                              // %"$7"
	bl	consTree
	mov	x1, x0
.LBB32_13:                              // %"$7"
	mov	x0, x1
	ldp	x20, x19, [sp, #16]             // 16-byte Folded Reload
	ldr	x30, [sp], #32                  // 8-byte Folded Reload
	ret
.LBB32_14:                              // %"$16"
	tbz	w1, #3, .LBB32_17
// %bb.15:                              // %"$19"
	ldp	w9, w8, [x1]
	bfi	x9, x8, #32, #32
	ldp	w8, w10, [x9, #8]
	bfi	x8, x10, #32, #32
	tst	x8, #0xf
	b.eq	.LBB32_22
// %bb.16:
	adrp	x1, SymTab+8
	add	x1, x1, :lo12:SymTab+8
	b	.LBB32_13
.LBB32_17:                              // %"$18"
	ldp	w11, w10, [x1]
	bfi	x11, x10, #32, #32
	cmp	x11, x8
	b.ne	.LBB32_19
// %bb.18:                              // %"$24"
	adrp	x9, env+88
	ldr	x9, [x9, :lo12:env+88]
	ldp	w9, w10, [x9]
	bfi	x9, x10, #32, #32
	ldp	w9, w10, [x9]
	bfi	x9, x10, #32, #32
	ldp	w11, w10, [x1, #8]
	bfi	x11, x10, #32, #32
	cmp	x11, x8
	add	x8, x9, #8                      // =8
	csel	x8, x8, x9, ne
	b	.LBB32_25
.LBB32_19:                              // %"$23"
	ldp	w11, w10, [x1]
	bfi	x11, x10, #32, #32
	cmp	x11, x9
	b.ne	.LBB32_23
// %bb.20:                              // %"$29"
	ldp	w10, w9, [x1, #8]
	bfi	x10, x9, #32, #32
	cmp	x10, x8
	b.ne	.LBB32_24
// %bb.21:                              // %"$30"
	adrp	x8, gcData
	add	x8, x8, :lo12:gcData
	b	.LBB32_25
.LBB32_22:                              // %"$20"
	ldp	w19, w9, [x8]
	bfi	x19, x9, #32, #32
	ldp	w0, w9, [x8, #8]
	bfi	x0, x9, #32, #32
	b	.LBB32_9
.LBB32_23:                              // %"$28"
	adrp	x8, ($Extern)
	ldr	x1, [x8, :lo12:($Extern)]
	b	.LBB32_13
.LBB32_24:                              // %"$31"
	adrp	x8, gcData+8
	add	x8, x8, :lo12:gcData+8
.LBB32_25:                              // %"$32"
	ldp	w1, w9, [x8]
	bfi	x1, x9, #32, #32
	b	.LBB32_13
.Lfunc_end32:
	.size	_all, .Lfunc_end32-_all
	.cfi_endproc
                                        // -- End function
	.globl	_symbols                        // -- Begin function _symbols
	.p2align	4
	.type	_symbols,@function
_symbols:                               // @_symbols
	.cfi_startproc
// %bb.0:                               // %"$1"
	stp	x29, x30, [sp, #-80]!           // 16-byte Folded Spill
	stp	x26, x25, [sp, #16]             // 16-byte Folded Spill
	stp	x24, x23, [sp, #32]             // 16-byte Folded Spill
	stp	x22, x21, [sp, #48]             // 16-byte Folded Spill
	stp	x20, x19, [sp, #64]             // 16-byte Folded Spill
	mov	x29, sp
	.cfi_def_cfa w29, 80
	.cfi_offset w19, -8
	.cfi_offset w20, -16
	.cfi_offset w21, -24
	.cfi_offset w22, -32
	.cfi_offset w23, -40
	.cfi_offset w24, -48
	.cfi_offset w25, -56
	.cfi_offset w26, -64
	.cfi_offset w30, -72
	.cfi_offset w29, -80
	ldp	w8, w9, [x0, #8]
	bfi	x8, x9, #32, #32
	tst	x8, #0xf
	b.eq	.LBB33_2
// %bb.1:                               // %"$2"
	adrp	x8, env+88
	ldr	x0, [x8, :lo12:env+88]
	b	.LBB33_32
.LBB33_2:                               // %"$3"
	mov	x19, x0
	ldp	w20, w9, [x8]
	bfi	x20, x9, #32, #32
	ldp	w22, w9, [x8, #8]
	bfi	x22, x9, #32, #32
	tst	x20, #0x6
	b.ne	.LBB33_5
// %bb.3:                               // %"$6"
	tbz	w20, #3, .LBB33_23
// %bb.4:                               // %"$9"
	ldp	w20, w8, [x20]
	bfi	x20, x8, #32, #32
.LBB33_5:                               // %"$5"
	tst	x20, #0xf
	b.eq	.LBB33_24
.LBB33_6:                               // %"$11"
	eor	w8, w20, #0x8
	tst	x8, #0xe
	b.ne	.LBB33_44
// %bb.7:                               // %"$38"
	ldp	w9, w8, [x20]
	bfi	x9, x8, #32, #32
	mov	w8, #1
	adrp	x21, SymTab+8
	add	x21, x21, :lo12:SymTab+8
	cmp	x9, x20
	cset	w10, eq
	cmp	x9, x21
	csel	w8, w8, w10, eq
	adrp	x23, SymTab+40
	add	x23, x23, :lo12:SymTab+40
	cbz	w8, .LBB33_10
// %bb.8:                               // %"$40"
	add	x8, x21, #208                   // =208
	cmp	x8, x20
	ccmp	x20, x21, #0, hs
	b.hs	.LBB33_46
// %bb.9:                               // %"$46"
	mov	x0, x21
	mov	x1, x21
	bl	cons
	mov	x1, x0
	add	x0, x21, #32                    // =32
	bl	cons
	lsr	x8, x0, #32
	stp	w0, w8, [x20]
	b	.LBB33_12
.LBB33_10:                              // %"$41"
	ldp	w8, w9, [x20]
	bfi	x8, x9, #32, #32
	tst	x8, #0xf
	b.ne	.LBB33_45
// %bb.11:                              // %"$48"
	ldp	w8, w9, [x8]
	bfi	x8, x9, #32, #32
	cmp	x23, x8
	b.ne	.LBB33_45
.LBB33_12:                              // %"$42"
	adrp	x21, SymTab+8
	add	x21, x21, :lo12:SymTab+8
	mov	x0, x20
	mov	x1, x21
	bl	cons
	mov	x20, x0
	adrp	x8, env
	ldr	x9, [x8, :lo12:env]
	mov	x10, sp
	sub	x24, x10, #16                   // =16
	mov	sp, x24
	lsr	x11, x0, #32
	lsr	x12, x9, #32
	stp	w20, w11, [x10, #-16]
	stp	w9, w12, [x10, #-8]
	mov	x25, x0
	str	x24, [x8, :lo12:env]
	tst	x22, #0xf
	b.ne	.LBB33_21
.LBB33_13:                              // %"$52"
                                        // =>This Inner Loop Header: Depth=1
	ldp	w1, w8, [x22]
	bfi	x1, x8, #32, #32
	ldp	w22, w26, [x22, #8]
	tst	x1, #0x6
	b.ne	.LBB33_17
// %bb.14:                              // %"$55"
                                        //   in Loop: Header=BB33_13 Depth=1
	tbz	w1, #3, .LBB33_16
// %bb.15:                              // %"$58"
                                        //   in Loop: Header=BB33_13 Depth=1
	ldp	w1, w8, [x1]
	bfi	x1, x8, #32, #32
	b	.LBB33_17
.LBB33_16:                              // %"$57"
                                        //   in Loop: Header=BB33_13 Depth=1
	mov	x0, x1
	bl	evList
	mov	x1, x0
.LBB33_17:                              // %"$54"
                                        //   in Loop: Header=BB33_13 Depth=1
	eor	w8, w1, #0x8
	tst	x8, #0xe
	b.ne	.LBB33_43
// %bb.18:                              // %"$60"
                                        //   in Loop: Header=BB33_13 Depth=1
	ldp	w8, w9, [x1]
	bfi	x8, x9, #32, #32
	tst	x8, #0xf
	b.ne	.LBB33_42
// %bb.19:                              // %"$62"
                                        //   in Loop: Header=BB33_13 Depth=1
	ldp	w8, w9, [x8]
	bfi	x8, x9, #32, #32
	cmp	x23, x8
	b.ne	.LBB33_42
// %bb.20:                              // %"$64"
                                        //   in Loop: Header=BB33_13 Depth=1
	bfi	x22, x26, #32, #32
	mov	x0, x1
	mov	x1, x21
	bl	cons
	lsr	x8, x0, #32
	stp	w0, w8, [x25, #8]
	mov	x25, x0
	tst	x22, #0xf
	b.eq	.LBB33_13
.LBB33_21:                              // %"$53"
	adrp	x19, env
	add	x19, x19, :lo12:env
	ldr	x0, [x19, #88]
	str	x20, [x19, #88]
	ldp	w20, w8, [x24, #8]
.LBB33_22:                              // %"$12"
	bfi	x20, x8, #32, #32
	b	.LBB33_31
.LBB33_23:                              // %"$8"
	mov	x0, x20
	bl	evList
	mov	x20, x0
	tst	x20, #0xf
	b.ne	.LBB33_6
.LBB33_24:                              // %"$13.preheader"
	mov	x8, x20
	adrp	x9, SymTab+40
	add	x9, x9, :lo12:SymTab+40
.LBB33_25:                              // %"$13"
                                        // =>This Inner Loop Header: Depth=1
	ldp	w1, w10, [x8]
	eor	w11, w1, #0x8
	bfi	x1, x10, #32, #32
	tst	x11, #0xe
	b.ne	.LBB33_43
// %bb.26:                              // %"$15"
                                        //   in Loop: Header=BB33_25 Depth=1
	ldp	w10, w11, [x1]
	bfi	x10, x11, #32, #32
	tst	x10, #0xf
	b.ne	.LBB33_42
// %bb.27:                              // %"$17"
                                        //   in Loop: Header=BB33_25 Depth=1
	ldp	w10, w11, [x10]
	bfi	x10, x11, #32, #32
	cmp	x9, x10
	b.ne	.LBB33_42
// %bb.28:                              // %"$19"
                                        //   in Loop: Header=BB33_25 Depth=1
	ldp	w8, w10, [x8, #8]
	bfi	x8, x10, #32, #32
	tst	x8, #0xf
	b.eq	.LBB33_25
// %bb.29:                              // %"$21"
	tst	x22, #0xf
	b.eq	.LBB33_33
// %bb.30:                              // %"$22"
	adrp	x19, env+88
	add	x19, x19, :lo12:env+88
	ldr	x0, [x19]
.LBB33_31:                              // %"$12"
	lsr	x8, x20, #32
	stp	w20, w8, [x19]
.LBB33_32:                              // %"$4"
	mov	sp, x29
	ldp	x20, x19, [sp, #64]             // 16-byte Folded Reload
	ldp	x22, x21, [sp, #48]             // 16-byte Folded Reload
	ldp	x24, x23, [sp, #32]             // 16-byte Folded Reload
	ldp	x26, x25, [sp, #16]             // 16-byte Folded Reload
	ldp	x29, x30, [sp], #80             // 16-byte Folded Reload
	ret
.LBB33_33:                              // %"$23"
	adrp	x19, env
	add	x19, x19, :lo12:env
	ldr	x21, [x19, #88]
	ldr	x8, [x19]
	mov	x9, sp
	sub	x23, x9, #16                    // =16
	mov	sp, x23
	lsr	x10, x21, #32
	lsr	x11, x8, #32
	stp	w21, w10, [x9, #-16]
	stp	w8, w11, [x9, #-8]
	str	x23, [x19]
	str	x20, [x19, #88]
.LBB33_34:                              // %"$25"
                                        // =>This Inner Loop Header: Depth=1
	ldp	w0, w8, [x22]
	bfi	x0, x8, #32, #32
	ldp	w22, w8, [x22, #8]
	bfi	x22, x8, #32, #32
	tst	x22, #0xf
	b.ne	.LBB33_37
// %bb.35:                              // %"$26"
                                        //   in Loop: Header=BB33_34 Depth=1
	tst	x0, #0xf
	b.ne	.LBB33_34
// %bb.36:                              // %"$35"
                                        //   in Loop: Header=BB33_34 Depth=1
	bl	evList
	b	.LBB33_34
.LBB33_37:                              // %"$28"
	tst	x0, #0x6
	b.ne	.LBB33_41
// %bb.38:                              // %"$30"
	tbz	w0, #3, .LBB33_40
// %bb.39:                              // %"$33"
	ldp	w0, w8, [x0]
	bfi	x0, x8, #32, #32
	b	.LBB33_41
.LBB33_40:                              // %"$32"
	bl	evList
.LBB33_41:                              // %"$27"
	str	x21, [x19, #88]
	ldp	w20, w8, [x23, #8]
	b	.LBB33_22
.LBB33_42:                              // %"$18"
	mov	x0, x19
	bl	symNspErr
.LBB33_43:                              // %"$14"
	mov	x0, x19
	bl	symErr
.LBB33_44:                              // %"$37"
	mov	x0, x19
	mov	x1, x20
	bl	symErr
.LBB33_45:                              // %"$49"
	mov	x0, x19
	mov	x1, x20
	bl	symNspErr
.LBB33_46:                              // %"$45"
	mov	x0, x19
	mov	x1, x20
	bl	protErr
.Lfunc_end33:
	.size	_symbols, .Lfunc_end33-_symbols
	.cfi_endproc
                                        // -- End function
	.globl	_intern                         // -- Begin function _intern
	.p2align	4
	.type	_intern,@function
_intern:                                // @_intern
	.cfi_startproc
// %bb.0:                               // %"$1"
	stp	x29, x30, [sp, #-64]!           // 16-byte Folded Spill
	stp	x24, x23, [sp, #16]             // 16-byte Folded Spill
	stp	x22, x21, [sp, #32]             // 16-byte Folded Spill
	stp	x20, x19, [sp, #48]             // 16-byte Folded Spill
	mov	x29, sp
	.cfi_def_cfa w29, 64
	.cfi_offset w19, -8
	.cfi_offset w20, -16
	.cfi_offset w21, -24
	.cfi_offset w22, -32
	.cfi_offset w23, -40
	.cfi_offset w24, -48
	.cfi_offset w30, -56
	.cfi_offset w29, -64
	mov	x20, x0
	ldp	w9, w8, [x0, #8]
	bfi	x9, x8, #32, #32
	ldp	w19, w8, [x9]
	bfi	x19, x8, #32, #32
	ldp	w24, w21, [x9, #8]
	tst	x19, #0x6
	b.ne	.LBB34_4
// %bb.1:                               // %"$3"
	tbz	w19, #3, .LBB34_3
// %bb.2:                               // %"$6"
	ldp	w19, w8, [x19]
	bfi	x19, x8, #32, #32
	b	.LBB34_4
.LBB34_3:                               // %"$5"
	mov	x0, x19
	bl	evList
	mov	x19, x0
.LBB34_4:                               // %"$2"
	eor	w8, w19, #0x8
	tst	x8, #0xe
	b.ne	.LBB34_21
// %bb.5:                               // %"$8"
	adrp	x22, env
	ldr	x8, [x22, :lo12:env]
	mov	x9, sp
	sub	x23, x9, #16                    // =16
	mov	sp, x23
	lsr	x10, x19, #32
	stp	w19, w10, [x9, #-16]
	lsr	x10, x8, #32
	stp	w8, w10, [x9, #-8]
	str	x23, [x22, :lo12:env]
	ldp	w20, w8, [x19, #-8]
	bfi	x20, x8, #32, #32
	tbz	w20, #3, .LBB34_7
// %bb.6:
	adrp	x21, SymTab+8
	add	x21, x21, :lo12:SymTab+8
	b	.LBB34_20
.LBB34_7:                               // %"$12.preheader"
	bfi	x24, x21, #32, #32
	tst	x20, #0x6
	b.ne	.LBB34_9
.LBB34_8:                               // %"$13"
                                        // =>This Inner Loop Header: Depth=1
	ldp	w20, w8, [x20, #8]
	bfi	x20, x8, #32, #32
	tst	x20, #0x6
	b.eq	.LBB34_8
.LBB34_9:                               // %"$14"
	cmp	x20, #2                         // =2
	adrp	x21, SymTab+8
	add	x21, x21, :lo12:SymTab+8
	b.eq	.LBB34_20
// %bb.10:                              // %"$15"
	ldp	w0, w8, [x24]
	bfi	x0, x8, #32, #32
	tst	x0, #0x6
	b.ne	.LBB34_13
// %bb.11:                              // %"$18"
	tbz	w0, #3, .LBB34_15
// %bb.12:                              // %"$21"
	ldp	w0, w8, [x0]
	bfi	x0, x8, #32, #32
.LBB34_13:                              // %"$17"
	cmp	x0, x21
	b.ne	.LBB34_16
.LBB34_14:                              // %"$22"
	adrp	x8, env+88
	ldr	x8, [x8, :lo12:env+88]
	ldp	w10, w9, [x8]
	bfi	x10, x9, #32, #32
	ldp	w10, w9, [x10]
	bfi	x10, x9, #32, #32
	ldp	w3, w9, [x10, #8]
	bfi	x3, x9, #32, #32
	ldp	w4, w9, [x8, #8]
	bfi	x4, x9, #32, #32
	b	.LBB34_19
.LBB34_15:                              // %"$20"
	bl	evList
	cmp	x0, x21
	b.eq	.LBB34_14
.LBB34_16:                              // %"$23"
	adrp	x8, SymTab+216
	add	x8, x8, :lo12:SymTab+216
	cmp	x0, x8
	b.ne	.LBB34_18
// %bb.17:                              // %"$25"
	adrp	x8, env+88
	ldr	x8, [x8, :lo12:env+88]
	ldp	w0, w9, [x8]
	bfi	x0, x9, #32, #32
.LBB34_18:                              // %"$27"
	ldp	w9, w8, [x0]
	bfi	x9, x8, #32, #32
	ldp	w3, w8, [x9, #8]
	bfi	x3, x8, #32, #32
	adrp	x4, SymTab+8
	add	x4, x4, :lo12:SymTab+8
.LBB34_19:                              // %"$24"
	mov	x0, x19
	mov	x1, xzr
	mov	x2, x20
	mov	w5, wzr
	bl	intern
	mov	x21, x0
.LBB34_20:                              // %"$9"
	ldp	w9, w8, [x23, #8]
	bfi	x9, x8, #32, #32
	str	x9, [x22, :lo12:env]
	mov	x0, x21
	mov	sp, x29
	ldp	x20, x19, [sp, #48]             // 16-byte Folded Reload
	ldp	x22, x21, [sp, #32]             // 16-byte Folded Reload
	ldp	x24, x23, [sp, #16]             // 16-byte Folded Reload
	ldp	x29, x30, [sp], #64             // 16-byte Folded Reload
	ret
.LBB34_21:                              // %"$7"
	mov	x0, x20
	mov	x1, x19
	bl	symErr
.Lfunc_end34:
	.size	_intern, .Lfunc_end34-_intern
	.cfi_endproc
                                        // -- End function
	.globl	_boxQ                           // -- Begin function _boxQ
	.p2align	4
	.type	_boxQ,@function
_boxQ:                                  // @_boxQ
	.cfi_startproc
// %bb.0:                               // %"$1"
	str	x30, [sp, #-16]!                // 8-byte Folded Spill
	.cfi_def_cfa_offset 16
	.cfi_offset w30, -16
	ldp	w9, w8, [x0, #8]
	bfi	x9, x8, #32, #32
	ldp	w0, w8, [x9]
	bfi	x0, x8, #32, #32
	tst	x0, #0x6
	b.ne	.LBB35_4
// %bb.1:                               // %"$3"
	tbz	w0, #3, .LBB35_3
// %bb.2:                               // %"$6"
	ldp	w0, w8, [x0]
	bfi	x0, x8, #32, #32
	b	.LBB35_4
.LBB35_3:                               // %"$5"
	bl	evList
.LBB35_4:                               // %"$2"
	eor	w8, w0, #0x8
	tst	x8, #0xe
	b.ne	.LBB35_6
// %bb.5:                               // %"$8"
	ldp	w8, w9, [x0, #-8]
	bfi	x8, x9, #32, #32
	tbz	w8, #3, .LBB35_9
.LBB35_6:
	mov	w8, wzr
.LBB35_7:                               // %"$7"
	adrp	x9, SymTab+8
	add	x9, x9, :lo12:SymTab+8
	cmp	w8, #0                          // =0
	csel	x0, x0, x9, ne
	ldr	x30, [sp], #16                  // 8-byte Folded Reload
	ret
.LBB35_8:                               // %"$11"
                                        //   in Loop: Header=BB35_9 Depth=1
	ldp	w8, w9, [x8, #8]
	bfi	x8, x9, #32, #32
.LBB35_9:                               // %"$10"
                                        // =>This Inner Loop Header: Depth=1
	tst	x8, #0x6
	b.eq	.LBB35_8
// %bb.10:                              // %"$12"
	cmp	x8, #2                          // =2
	cset	w8, eq
	b	.LBB35_7
.Lfunc_end35:
	.size	_boxQ, .Lfunc_end35-_boxQ
	.cfi_endproc
                                        // -- End function
	.globl	_strQ                           // -- Begin function _strQ
	.p2align	4
	.type	_strQ,@function
_strQ:                                  // @_strQ
	.cfi_startproc
// %bb.0:                               // %"$1"
	str	x30, [sp, #-32]!                // 8-byte Folded Spill
	stp	x20, x19, [sp, #16]             // 16-byte Folded Spill
	.cfi_def_cfa_offset 32
	.cfi_offset w19, -8
	.cfi_offset w20, -16
	.cfi_offset w30, -32
	ldp	w9, w8, [x0, #8]
	bfi	x9, x8, #32, #32
	ldp	w19, w8, [x9]
	bfi	x19, x8, #32, #32
	tst	x19, #0x6
	b.ne	.LBB36_4
// %bb.1:                               // %"$3"
	tbz	w19, #3, .LBB36_3
// %bb.2:                               // %"$6"
	ldp	w19, w8, [x19]
	bfi	x19, x8, #32, #32
	b	.LBB36_4
.LBB36_3:                               // %"$5"
	mov	x0, x19
	bl	evList
	mov	x19, x0
.LBB36_4:                               // %"$2"
	eor	w8, w19, #0x8
	tst	x8, #0xe
	adrp	x20, SymTab+8
	add	x20, x20, :lo12:SymTab+8
	b.ne	.LBB36_11
// %bb.5:                               // %"$8"
	ldp	w1, w8, [x19, #-8]
	bfi	x1, x8, #32, #32
	tbz	w1, #3, .LBB36_7
// %bb.6:
	mov	w0, #1
	b	.LBB36_10
.LBB36_7:                               // %"$12"
                                        // =>This Inner Loop Header: Depth=1
	tst	x1, #0x6
	b.ne	.LBB36_9
// %bb.8:                               // %"$13"
                                        //   in Loop: Header=BB36_7 Depth=1
	ldp	w1, w8, [x1, #8]
	bfi	x1, x8, #32, #32
	b	.LBB36_7
.LBB36_9:                               // %"$14"
	adrp	x8, env+88
	ldr	x2, [x8, :lo12:env+88]
	mov	x0, x19
	bl	findSym
.LBB36_10:                              // %"$10"
	tst	w0, #0x1
	csel	x20, x20, x19, ne
.LBB36_11:                              // %"$7"
	mov	x0, x20
	ldp	x20, x19, [sp, #16]             // 16-byte Folded Reload
	ldr	x30, [sp], #32                  // 8-byte Folded Reload
	ret
.Lfunc_end36:
	.size	_strQ, .Lfunc_end36-_strQ
	.cfi_endproc
                                        // -- End function
	.globl	_zap                            // -- Begin function _zap
	.p2align	4
	.type	_zap,@function
_zap:                                   // @_zap
	.cfi_startproc
// %bb.0:                               // %"$1"
	str	x30, [sp, #-32]!                // 8-byte Folded Spill
	stp	x20, x19, [sp, #16]             // 16-byte Folded Spill
	.cfi_def_cfa_offset 32
	.cfi_offset w19, -8
	.cfi_offset w20, -16
	.cfi_offset w30, -32
	mov	x20, x0
	ldp	w9, w8, [x0, #8]
	bfi	x9, x8, #32, #32
	ldp	w19, w8, [x9]
	bfi	x19, x8, #32, #32
	tst	x19, #0x6
	b.ne	.LBB37_4
// %bb.1:                               // %"$3"
	tbz	w19, #3, .LBB37_3
// %bb.2:                               // %"$6"
	ldp	w19, w8, [x19]
	bfi	x19, x8, #32, #32
	b	.LBB37_4
.LBB37_3:                               // %"$5"
	mov	x0, x19
	bl	evList
	mov	x19, x0
.LBB37_4:                               // %"$2"
	eor	w8, w19, #0x8
	tst	x8, #0xe
	b.ne	.LBB37_11
// %bb.5:                               // %"$8"
	ldp	w1, w8, [x19, #-8]
	bfi	x1, x8, #32, #32
	tbz	w1, #3, .LBB37_7
// %bb.6:                               // %"$9"
	mov	x0, x19
	bl	dbZap
	b	.LBB37_10
.LBB37_7:                               // %"$12"
                                        // =>This Inner Loop Header: Depth=1
	tst	x1, #0x6
	b.ne	.LBB37_9
// %bb.8:                               // %"$13"
                                        //   in Loop: Header=BB37_7 Depth=1
	ldp	w1, w8, [x1, #8]
	bfi	x1, x8, #32, #32
	b	.LBB37_7
.LBB37_9:                               // %"$14"
	adrp	x8, env+88
	ldr	x8, [x8, :lo12:env+88]
	ldp	w8, w9, [x8]
	bfi	x8, x9, #32, #32
	ldp	w8, w9, [x8]
	bfi	x8, x9, #32, #32
	ldp	w2, w9, [x8, #8]
	bfi	x2, x9, #32, #32
	mov	x0, x19
	bl	unintern
.LBB37_10:                              // %"$11"
	mov	x0, x19
	ldp	x20, x19, [sp, #16]             // 16-byte Folded Reload
	ldr	x30, [sp], #32                  // 8-byte Folded Reload
	ret
.LBB37_11:                              // %"$7"
	mov	x0, x20
	mov	x1, x19
	bl	symErr
.Lfunc_end37:
	.size	_zap, .Lfunc_end37-_zap
	.cfi_endproc
                                        // -- End function
	.globl	_chop                           // -- Begin function _chop
	.p2align	4
	.type	_chop,@function
_chop:                                  // @_chop
	.cfi_startproc
// %bb.0:                               // %"$1"
	stp	x29, x30, [sp, #-64]!           // 16-byte Folded Spill
	stp	x24, x23, [sp, #16]             // 16-byte Folded Spill
	stp	x22, x21, [sp, #32]             // 16-byte Folded Spill
	stp	x20, x19, [sp, #48]             // 16-byte Folded Spill
	mov	x29, sp
	.cfi_def_cfa w29, 64
	.cfi_offset w19, -8
	.cfi_offset w20, -16
	.cfi_offset w21, -24
	.cfi_offset w22, -32
	.cfi_offset w23, -40
	.cfi_offset w24, -48
	.cfi_offset w30, -56
	.cfi_offset w29, -64
	ldp	w9, w8, [x0, #8]
	bfi	x9, x8, #32, #32
	ldp	w19, w8, [x9]
	bfi	x19, x8, #32, #32
	tst	x19, #0x6
	b.ne	.LBB38_4
// %bb.1:                               // %"$3"
	tbz	w19, #3, .LBB38_3
// %bb.2:                               // %"$6"
	ldp	w19, w8, [x19]
	bfi	x19, x8, #32, #32
	b	.LBB38_4
.LBB38_3:                               // %"$5"
	mov	x0, x19
	bl	evList
	mov	x19, x0
.LBB38_4:                               // %"$2"
	tst	x19, #0xf
	cset	w8, eq
	adrp	x9, SymTab+8
	add	x9, x9, :lo12:SymTab+8
	cmp	x19, x9
	cset	w9, eq
	orr	w8, w8, w9
	tbnz	w8, #0, .LBB38_17
// %bb.5:                               // %"$10"
	mov	x0, x19
	bl	xSym
	ldp	w19, w8, [x0, #-8]
	bfi	x19, x8, #32, #32
	tbz	w19, #3, .LBB38_9
// %bb.6:                               // %"$12"
	and	x0, x19, #0xfffffffffffffff7
	tst	x0, #0x6
	b.ne	.LBB38_8
.LBB38_7:                               // %"$16"
                                        // =>This Inner Loop Header: Depth=1
	ldp	w0, w8, [x0, #8]
	bfi	x0, x8, #32, #32
	tst	x0, #0x6
	b.eq	.LBB38_7
.LBB38_8:                               // %"$17"
	bl	chopExtNm
	mov	x19, x0
	b	.LBB38_17
.LBB38_9:
	mov	x8, x19
	tst	x8, #0x6
	b.ne	.LBB38_11
.LBB38_10:                              // %"$19"
                                        // =>This Inner Loop Header: Depth=1
	ldp	w8, w9, [x8, #8]
	bfi	x8, x9, #32, #32
	tst	x8, #0x6
	b.eq	.LBB38_10
.LBB38_11:                              // %"$20"
	mov	x9, sp
	sub	x20, x9, #16                    // =16
	mov	sp, x20
	stp	wzr, wzr, [x9, #-16]
	lsr	x10, x8, #32
	stp	w8, w10, [x9, #-8]
	mov	x0, x20
	bl	symChar
	cbz	w0, .LBB38_16
// %bb.12:                              // %"$21"
	adrp	x22, env
	ldr	x8, [x22, :lo12:env]
	mov	x9, sp
	sub	x23, x9, #16                    // =16
	mov	sp, x23
	lsr	x10, x19, #32
	lsr	x11, x8, #32
	stp	w19, w10, [x9, #-16]
	stp	w8, w11, [x9, #-8]
	str	x23, [x22, :lo12:env]
	bl	mkChar
	adrp	x21, SymTab+8
	add	x21, x21, :lo12:SymTab+8
	mov	x1, x21
	bl	cons
	mov	x19, x0
	ldr	x8, [x22, :lo12:env]
	mov	x9, sp
	sub	x10, x9, #16                    // =16
	mov	sp, x10
	lsr	x11, x0, #32
	lsr	x12, x8, #32
	stp	w19, w11, [x9, #-16]
	stp	w8, w12, [x9, #-8]
	mov	x24, x0
	str	x10, [x22, :lo12:env]
.LBB38_13:                              // %"$24"
                                        // =>This Inner Loop Header: Depth=1
	mov	x0, x20
	bl	symChar
	cbz	w0, .LBB38_15
// %bb.14:                              // %"$25"
                                        //   in Loop: Header=BB38_13 Depth=1
	bl	mkChar
	mov	x1, x21
	bl	cons
	lsr	x8, x0, #32
	stp	w0, w8, [x24, #8]
	mov	x24, x0
	b	.LBB38_13
.LBB38_15:                              // %"$26"
	ldp	w9, w8, [x23, #8]
	bfi	x9, x8, #32, #32
	str	x9, [x22, :lo12:env]
	b	.LBB38_17
.LBB38_16:
	adrp	x19, SymTab+8
	add	x19, x19, :lo12:SymTab+8
.LBB38_17:                              // %"$11"
	mov	x0, x19
	mov	sp, x29
	ldp	x20, x19, [sp, #48]             // 16-byte Folded Reload
	ldp	x22, x21, [sp, #32]             // 16-byte Folded Reload
	ldp	x24, x23, [sp, #16]             // 16-byte Folded Reload
	ldp	x29, x30, [sp], #64             // 16-byte Folded Reload
	ret
.Lfunc_end38:
	.size	_chop, .Lfunc_end38-_chop
	.cfi_endproc
                                        // -- End function
	.globl	_pack                           // -- Begin function _pack
	.p2align	4
	.type	_pack,@function
_pack:                                  // @_pack
	.cfi_startproc
// %bb.0:                               // %"$1"
	sub	sp, sp, #80                     // =80
	stp	x20, x19, [sp, #64]             // 16-byte Folded Spill
	.cfi_def_cfa_offset 80
	.cfi_offset w19, -8
	.cfi_offset w20, -16
	.cfi_offset w30, -32
	adrp	x19, env
	mov	w8, #10
	add	x9, sp, #32                     // =32
	mov	w10, #4
	ldr	x11, [x19, :lo12:env]
	str	x9, [x19, :lo12:env]
	str	x8, [sp, #32]
	stp	x11, x30, [sp, #40]             // 8-byte Folded Spill
	ldp	w20, w8, [x0, #8]
	bfi	x20, x8, #32, #32
	mov	w8, #2
	str	x10, [sp]
	stp	x8, x9, [sp, #16]
	mov	x8, sp
	add	x8, x8, #16                     // =16
	str	x8, [x19, :lo12:env]
	b	.LBB39_3
.LBB39_1:                               // %"$8"
                                        //   in Loop: Header=BB39_3 Depth=1
	bl	evList
.LBB39_2:                               // %"$5"
                                        //   in Loop: Header=BB39_3 Depth=1
	str	x0, [sp, #32]
	mov	x1, sp
	bl	pack
.LBB39_3:                               // %"$2"
                                        // =>This Inner Loop Header: Depth=1
	tst	x20, #0xf
	b.ne	.LBB39_7
// %bb.4:                               // %"$3"
                                        //   in Loop: Header=BB39_3 Depth=1
	ldp	w0, w8, [x20]
	bfi	x0, x8, #32, #32
	ldp	w20, w8, [x20, #8]
	bfi	x20, x8, #32, #32
	tst	x0, #0x6
	b.ne	.LBB39_2
// %bb.5:                               // %"$6"
                                        //   in Loop: Header=BB39_3 Depth=1
	tbz	w0, #3, .LBB39_1
// %bb.6:                               // %"$9"
                                        //   in Loop: Header=BB39_3 Depth=1
	ldp	w0, w8, [x0]
	bfi	x0, x8, #32, #32
	b	.LBB39_2
.LBB39_7:                               // %"$4"
	ldr	x0, [sp, #16]
	bl	consStr
	ldp	x8, x30, [sp, #40]              // 8-byte Folded Reload
	str	x8, [x19, :lo12:env]
	ldp	x20, x19, [sp, #64]             // 16-byte Folded Reload
	add	sp, sp, #80                     // =80
	ret
.Lfunc_end39:
	.size	_pack, .Lfunc_end39-_pack
	.cfi_endproc
                                        // -- End function
	.globl	_glue                           // -- Begin function _glue
	.p2align	4
	.type	_glue,@function
_glue:                                  // @_glue
	.cfi_startproc
// %bb.0:                               // %"$1"
	stp	x29, x30, [sp, #-64]!           // 16-byte Folded Spill
	str	x23, [sp, #16]                  // 8-byte Folded Spill
	stp	x22, x21, [sp, #32]             // 16-byte Folded Spill
	stp	x20, x19, [sp, #48]             // 16-byte Folded Spill
	mov	x29, sp
	.cfi_def_cfa w29, 64
	.cfi_offset w19, -8
	.cfi_offset w20, -16
	.cfi_offset w21, -24
	.cfi_offset w22, -32
	.cfi_offset w23, -48
	.cfi_offset w30, -56
	.cfi_offset w29, -64
	ldp	w9, w8, [x0, #8]
	bfi	x9, x8, #32, #32
	ldp	w19, w8, [x9]
	bfi	x19, x8, #32, #32
	ldp	w20, w8, [x9, #8]
	bfi	x20, x8, #32, #32
	tst	x19, #0x6
	b.ne	.LBB40_4
// %bb.1:                               // %"$3"
	tbz	w19, #3, .LBB40_3
// %bb.2:                               // %"$6"
	ldp	w19, w8, [x19]
	bfi	x19, x8, #32, #32
	b	.LBB40_4
.LBB40_3:                               // %"$5"
	mov	x0, x19
	bl	evList
	mov	x19, x0
.LBB40_4:                               // %"$2"
	adrp	x22, env
	ldr	x8, [x22, :lo12:env]
	mov	x9, sp
	sub	x23, x9, #16                    // =16
	mov	sp, x23
	lsr	x10, x19, #32
	stp	w19, w10, [x9, #-16]
	lsr	x10, x8, #32
	stp	w8, w10, [x9, #-8]
	str	x23, [x22, :lo12:env]
	ldp	w20, w8, [x20]
	bfi	x20, x8, #32, #32
	tst	x20, #0x6
	b.ne	.LBB40_7
// %bb.5:                               // %"$8"
	tbz	w20, #3, .LBB40_12
// %bb.6:                               // %"$11"
	ldp	w20, w8, [x20]
	bfi	x20, x8, #32, #32
.LBB40_7:                               // %"$7"
	tst	x20, #0xf
	b.ne	.LBB40_13
.LBB40_8:                               // %"$13"
	ldr	x8, [x22, :lo12:env]
	mov	x9, sp
	sub	x10, x9, #16                    // =16
	mov	sp, x10
	lsr	x11, x20, #32
	lsr	x12, x8, #32
	stp	w20, w11, [x9, #-16]
	stp	w8, w12, [x9, #-8]
	str	x10, [x22, :lo12:env]
	mov	x8, sp
	sub	x21, x8, #32                    // =32
	mov	sp, x21
	mov	w9, #4
	stp	w9, wzr, [x8, #-32]
	mov	w9, #2
	mov	x10, x21
	str	w9, [x10, #16]!
	stur	wzr, [x8, #-12]
	ldr	x9, [x22, :lo12:env]
	lsr	x11, x9, #32
	stp	w9, w11, [x8, #-8]
	str	x10, [x22, :lo12:env]
.LBB40_9:                               // %"$15"
                                        // =>This Inner Loop Header: Depth=1
	ldp	w0, w8, [x20]
	bfi	x0, x8, #32, #32
	ldp	w20, w8, [x20, #8]
	bfi	x20, x8, #32, #32
	mov	x1, x21
	bl	pack
	tst	x20, #0xf
	b.ne	.LBB40_11
// %bb.10:                              // %"$16"
                                        //   in Loop: Header=BB40_9 Depth=1
	mov	x0, x19
	mov	x1, x21
	bl	pack
	b	.LBB40_9
.LBB40_11:                              // %"$17"
	ldp	w0, w8, [x21, #16]
	bfi	x0, x8, #32, #32
	bl	consStr
	mov	x20, x0
	b	.LBB40_13
.LBB40_12:                              // %"$10"
	mov	x0, x20
	bl	evList
	mov	x20, x0
	tst	x20, #0xf
	b.eq	.LBB40_8
.LBB40_13:                              // %"$14"
	ldp	w9, w8, [x23, #8]
	bfi	x9, x8, #32, #32
	str	x9, [x22, :lo12:env]
	mov	x0, x20
	mov	sp, x29
	ldp	x20, x19, [sp, #48]             // 16-byte Folded Reload
	ldp	x22, x21, [sp, #32]             // 16-byte Folded Reload
	ldr	x23, [sp, #16]                  // 8-byte Folded Reload
	ldp	x29, x30, [sp], #64             // 16-byte Folded Reload
	ret
.Lfunc_end40:
	.size	_glue, .Lfunc_end40-_glue
	.cfi_endproc
                                        // -- End function
	.globl	_text                           // -- Begin function _text
	.p2align	4
	.type	_text,@function
_text:                                  // @_text
	.cfi_startproc
// %bb.0:                               // %"$1"
	stp	x29, x30, [sp, #-80]!           // 16-byte Folded Spill
	str	x25, [sp, #16]                  // 8-byte Folded Spill
	stp	x24, x23, [sp, #32]             // 16-byte Folded Spill
	stp	x22, x21, [sp, #48]             // 16-byte Folded Spill
	stp	x20, x19, [sp, #64]             // 16-byte Folded Spill
	mov	x29, sp
	.cfi_def_cfa w29, 80
	.cfi_offset w19, -8
	.cfi_offset w20, -16
	.cfi_offset w21, -24
	.cfi_offset w22, -32
	.cfi_offset w23, -40
	.cfi_offset w24, -48
	.cfi_offset w25, -64
	.cfi_offset w30, -72
	.cfi_offset w29, -80
	mov	x19, x0
	ldp	w21, w8, [x0, #8]
	bfi	x21, x8, #32, #32
	mov	x0, x21
	bl	evSym
	mov	x1, x0
	adrp	x8, SymTab+8
	add	x8, x8, :lo12:SymTab+8
	cmp	x0, x8
	b.eq	.LBB41_20
// %bb.1:                               // %"$3"
	mov	x0, x19
	bl	xName
	mov	x8, sp
	sub	x19, x8, #32                    // =32
	mov	sp, x19
	stp	wzr, wzr, [x8, #-32]
	lsr	x9, x0, #32
	stur	w9, [x8, #-20]
	mov	x23, x19
	str	w0, [x23, #8]!
	adrp	x22, env
	ldr	x9, [x22, :lo12:env]
	lsr	x10, x9, #32
	stp	w9, w10, [x8, #-16]
	str	x23, [x22, :lo12:env]
	mov	x8, sp
	sub	x20, x8, #32                    // =32
	mov	sp, x20
	mov	x24, xzr
	mov	w9, #4
	stp	w9, wzr, [x8, #-32]
	mov	w9, #2
	mov	x25, x20
	str	w9, [x25, #16]!
	stur	wzr, [x8, #-12]
	ldr	x9, [x22, :lo12:env]
	lsr	x10, x9, #32
	stp	w9, w10, [x8, #-8]
	str	x25, [x22, :lo12:env]
	b	.LBB41_4
.LBB41_2:                               // %"$11"
                                        //   in Loop: Header=BB41_4 Depth=1
	bl	evList
.LBB41_3:                               // %"$8"
                                        //   in Loop: Header=BB41_4 Depth=1
	mov	x8, sp
	sub	x25, x8, #16                    // =16
	mov	sp, x25
	lsr	x9, x0, #32
	stp	w0, w9, [x8, #-16]
	ldr	x9, [x22, :lo12:env]
	lsr	x10, x9, #32
	stp	w9, w10, [x8, #-8]
	str	x25, [x22, :lo12:env]
	add	x24, x24, #1                    // =1
.LBB41_4:                               // %"$5"
                                        // =>This Inner Loop Header: Depth=1
	ldp	w21, w8, [x21, #8]
	bfi	x21, x8, #32, #32
	tst	x21, #0xf
	b.ne	.LBB41_9
// %bb.5:                               // %"$6"
                                        //   in Loop: Header=BB41_4 Depth=1
	ldp	w0, w8, [x21]
	bfi	x0, x8, #32, #32
	tst	x0, #0x6
	b.ne	.LBB41_3
// %bb.6:                               // %"$9"
                                        //   in Loop: Header=BB41_4 Depth=1
	tbz	w0, #3, .LBB41_2
// %bb.7:                               // %"$12"
                                        //   in Loop: Header=BB41_4 Depth=1
	ldp	w0, w8, [x0]
	bfi	x0, x8, #32, #32
	b	.LBB41_3
.LBB41_8:                               // %"$18"
                                        //   in Loop: Header=BB41_9 Depth=1
	mov	x1, x20
	bl	byteSym
.LBB41_9:                               // %"$13"
                                        // =>This Loop Header: Depth=1
                                        //     Child Loop BB41_17 Depth 2
	mov	x0, x19
	bl	symByte
	tst	w0, #0xff
	b.eq	.LBB41_19
// %bb.10:                              // %"$14"
                                        //   in Loop: Header=BB41_9 Depth=1
	and	w8, w0, #0xff
	cmp	w8, #64                         // =64
	b.ne	.LBB41_8
// %bb.11:                              // %"$17"
                                        //   in Loop: Header=BB41_9 Depth=1
	mov	x0, x19
	bl	symByte
	and	w8, w0, #0xff
	cmp	w8, #64                         // =64
	b.eq	.LBB41_8
// %bb.12:                              // %"$19"
                                        //   in Loop: Header=BB41_9 Depth=1
	sub	w8, w0, #48                     // =48
	sxtb	w9, w8
	cmp	w9, #1                          // =1
	b.lt	.LBB41_9
// %bb.13:                              // %"$22"
                                        //   in Loop: Header=BB41_9 Depth=1
	and	w9, w8, #0xff
	cmp	w9, #10                         // =10
	b.lo	.LBB41_15
// %bb.14:                              // %"$23"
                                        //   in Loop: Header=BB41_9 Depth=1
	sub	w8, w8, #7                      // =7
.LBB41_15:                              // %"$24"
                                        //   in Loop: Header=BB41_9 Depth=1
	and	x8, x8, #0xff
	cmp	x24, x8
	b.mi	.LBB41_9
// %bb.16:                              // %"$27.preheader"
                                        //   in Loop: Header=BB41_9 Depth=1
	mvn	x8, x8
	add	x9, x8, x24
	mov	x8, x25
	tbnz	x9, #63, .LBB41_18
.LBB41_17:                              // %"$28"
                                        //   Parent Loop BB41_9 Depth=1
                                        // =>  This Inner Loop Header: Depth=2
	ldp	w8, w10, [x8, #8]
	bfi	x8, x10, #32, #32
	sub	x9, x9, #1                      // =1
	tbz	x9, #63, .LBB41_17
.LBB41_18:                              // %"$29"
                                        //   in Loop: Header=BB41_9 Depth=1
	ldp	w0, w9, [x8]
	bfi	x0, x9, #32, #32
	mov	x1, x20
	bl	pack
	b	.LBB41_9
.LBB41_19:                              // %"$15"
	ldp	w0, w8, [x20, #16]
	bfi	x0, x8, #32, #32
	bl	consStr
	mov	x1, x0
	ldp	w9, w8, [x23, #8]
	bfi	x9, x8, #32, #32
	str	x9, [x22, :lo12:env]
.LBB41_20:                              // %"$4"
	mov	x0, x1
	mov	sp, x29
	ldp	x20, x19, [sp, #64]             // 16-byte Folded Reload
	ldp	x22, x21, [sp, #48]             // 16-byte Folded Reload
	ldp	x24, x23, [sp, #32]             // 16-byte Folded Reload
	ldr	x25, [sp, #16]                  // 8-byte Folded Reload
	ldp	x29, x30, [sp], #80             // 16-byte Folded Reload
	ret
.Lfunc_end41:
	.size	_text, .Lfunc_end41-_text
	.cfi_endproc
                                        // -- End function
	.globl	_preQ                           // -- Begin function _preQ
	.p2align	4
	.type	_preQ,@function
_preQ:                                  // @_preQ
	.cfi_startproc
// %bb.0:                               // %"$1"
	stp	x29, x30, [sp, #-48]!           // 16-byte Folded Spill
	stp	x22, x21, [sp, #16]             // 16-byte Folded Spill
	stp	x20, x19, [sp, #32]             // 16-byte Folded Spill
	mov	x29, sp
	sub	sp, sp, #16                     // =16
	.cfi_def_cfa w29, 48
	.cfi_offset w19, -8
	.cfi_offset w20, -16
	.cfi_offset w21, -24
	.cfi_offset w22, -32
	.cfi_offset w30, -40
	.cfi_offset w29, -48
	mov	x20, x0
	ldp	w19, w8, [x0, #8]
	bfi	x19, x8, #32, #32
	mov	x0, x19
	bl	evSym
	mov	x21, x0
	adrp	x22, env
	ldr	x8, [x22, :lo12:env]
	stp	x0, x8, [x29, #-16]
	sub	x8, x29, #16                    // =16
	str	x8, [x22, :lo12:env]
	ldp	w0, w8, [x19, #8]
	bfi	x0, x8, #32, #32
	bl	evSym
	mov	x19, x0
	adrp	x8, SymTab+8
	add	x8, x8, :lo12:SymTab+8
	cmp	x21, x8
	b.eq	.LBB42_5
// %bb.1:                               // %"$3"
	mov	x0, x20
	mov	x1, x21
	bl	xName
	cmp	x0, #2                          // =2
	b.eq	.LBB42_5
// %bb.2:                               // %"$5"
	mov	x21, x0
	mov	x0, x20
	mov	x1, x19
	bl	xName
	mov	x8, sp
	sub	x20, x8, #16                    // =16
	mov	sp, x20
	stp	wzr, wzr, [x8, #-16]
	lsr	x9, x0, #32
	stp	w0, w9, [x8, #-8]
	mov	x0, x20
	bl	symByte
	tst	w0, #0xff
	b.eq	.LBB42_4
// %bb.3:                               // %"$8"
	mov	w1, w0
	mov	x0, x21
	mov	x2, x20
	bl	preStr
	tbnz	w0, #0, .LBB42_5
.LBB42_4:                               // %"$10"
	adrp	x19, SymTab+8
	add	x19, x19, :lo12:SymTab+8
.LBB42_5:                               // %"$2"
	ldur	x8, [x29, #-8]
	str	x8, [x22, :lo12:env]
	mov	x0, x19
	mov	sp, x29
	ldp	x20, x19, [sp, #32]             // 16-byte Folded Reload
	ldp	x22, x21, [sp, #16]             // 16-byte Folded Reload
	ldp	x29, x30, [sp], #48             // 16-byte Folded Reload
	ret
.Lfunc_end42:
	.size	_preQ, .Lfunc_end42-_preQ
	.cfi_endproc
                                        // -- End function
	.globl	_subQ                           // -- Begin function _subQ
	.p2align	4
	.type	_subQ,@function
_subQ:                                  // @_subQ
	.cfi_startproc
// %bb.0:                               // %"$1"
	sub	sp, sp, #48                     // =48
	stp	x30, x21, [sp, #16]             // 16-byte Folded Spill
	stp	x20, x19, [sp, #32]             // 16-byte Folded Spill
	.cfi_def_cfa_offset 48
	.cfi_offset w19, -8
	.cfi_offset w20, -16
	.cfi_offset w21, -24
	.cfi_offset w30, -32
	ldp	w19, w8, [x0, #8]
	bfi	x19, x8, #32, #32
	mov	x0, x19
	bl	evSym
	mov	x20, x0
	adrp	x21, env
	ldr	x8, [x21, :lo12:env]
	stp	x0, x8, [sp]
	mov	x8, sp
	str	x8, [x21, :lo12:env]
	ldp	w0, w8, [x19, #8]
	bfi	x0, x8, #32, #32
	bl	evSym
	mov	x19, x0
	mov	x0, x20
	mov	x1, x19
	bl	subStr
	adrp	x8, SymTab+8
	add	x8, x8, :lo12:SymTab+8
	tst	w0, #0x1
	csel	x0, x19, x8, ne
	ldr	x8, [sp, #8]
	str	x8, [x21, :lo12:env]
	ldp	x20, x19, [sp, #32]             // 16-byte Folded Reload
	ldp	x30, x21, [sp, #16]             // 16-byte Folded Reload
	add	sp, sp, #48                     // =48
	ret
.Lfunc_end43:
	.size	_subQ, .Lfunc_end43-_subQ
	.cfi_endproc
                                        // -- End function
	.globl	_val                            // -- Begin function _val
	.p2align	4
	.type	_val,@function
_val:                                   // @_val
	.cfi_startproc
// %bb.0:                               // %"$1"
	str	x30, [sp, #-32]!                // 8-byte Folded Spill
	stp	x20, x19, [sp, #16]             // 16-byte Folded Spill
	.cfi_def_cfa_offset 32
	.cfi_offset w19, -8
	.cfi_offset w20, -16
	.cfi_offset w30, -32
	mov	x19, x0
	ldp	w9, w8, [x0, #8]
	bfi	x9, x8, #32, #32
	ldp	w20, w8, [x9]
	bfi	x20, x8, #32, #32
	tst	x20, #0x6
	b.ne	.LBB44_4
// %bb.1:                               // %"$3"
	tbz	w20, #3, .LBB44_3
// %bb.2:                               // %"$6"
	ldp	w20, w8, [x20]
	bfi	x20, x8, #32, #32
	b	.LBB44_4
.LBB44_3:                               // %"$5"
	mov	x0, x20
	bl	evList
	mov	x20, x0
.LBB44_4:                               // %"$2"
	tst	x20, #0x6
	b.ne	.LBB44_9
// %bb.5:                               // %"$8"
	tbz	w20, #3, .LBB44_8
// %bb.6:                               // %"$10"
	ldurb	w8, [x20, #-8]
	tbz	w8, #3, .LBB44_8
// %bb.7:                               // %"$11"
	mov	x0, x19
	mov	x1, x20
	bl	dbFetch
.LBB44_8:                               // %"$12"
	ldp	w0, w8, [x20]
	bfi	x0, x8, #32, #32
	ldp	x20, x19, [sp, #16]             // 16-byte Folded Reload
	ldr	x30, [sp], #32                  // 8-byte Folded Reload
	ret
.LBB44_9:                               // %"$7"
	mov	x0, x19
	mov	x1, x20
	bl	varErr
.Lfunc_end44:
	.size	_val, .Lfunc_end44-_val
	.cfi_endproc
                                        // -- End function
	.globl	_set                            // -- Begin function _set
	.p2align	4
	.type	_set,@function
_set:                                   // @_set
	.cfi_startproc
// %bb.0:                               // %"$1"
	sub	sp, sp, #80                     // =80
	stp	x24, x23, [sp, #32]             // 16-byte Folded Spill
	stp	x22, x21, [sp, #48]             // 16-byte Folded Spill
	stp	x20, x19, [sp, #64]             // 16-byte Folded Spill
	.cfi_def_cfa_offset 80
	.cfi_offset w19, -8
	.cfi_offset w20, -16
	.cfi_offset w21, -24
	.cfi_offset w22, -32
	.cfi_offset w23, -40
	.cfi_offset w24, -48
	.cfi_offset w30, -64
	mov	x19, x0
	adrp	x21, env
	ldr	x8, [x21, :lo12:env]
	mov	w9, #10
	str	x9, [sp]
	stp	x8, x30, [sp, #8]               // 8-byte Folded Spill
	mov	x8, sp
	str	x8, [x21, :lo12:env]
	ldp	w23, w8, [x0, #8]
	bfi	x23, x8, #32, #32
	adrp	x22, SymTab+8
	add	x22, x22, :lo12:SymTab+8
	b	.LBB45_3
.LBB45_1:                               // %"$17"
                                        //   in Loop: Header=BB45_3 Depth=1
	ldp	w0, w8, [x23]
	bfi	x0, x8, #32, #32
	ldp	w23, w8, [x23, #8]
	bfi	x23, x8, #32, #32
	tst	x0, #0x6
	b.eq	.LBB45_6
.LBB45_2:                               // %"$18"
                                        //   in Loop: Header=BB45_3 Depth=1
	lsr	x8, x0, #32
	stp	w0, w8, [x20]
	tst	x23, #0xf
	b.ne	.LBB45_16
.LBB45_3:                               // %"$2"
                                        // =>This Inner Loop Header: Depth=1
	ldp	w20, w8, [x23]
	bfi	x20, x8, #32, #32
	ldp	w23, w24, [x23, #8]
	tst	x20, #0x6
	b.ne	.LBB45_9
// %bb.4:                               // %"$4"
                                        //   in Loop: Header=BB45_3 Depth=1
	tbz	w20, #3, .LBB45_8
// %bb.5:                               // %"$7"
                                        //   in Loop: Header=BB45_3 Depth=1
	ldp	w20, w8, [x20]
	bfi	x20, x8, #32, #32
	b	.LBB45_9
.LBB45_6:                               // %"$19"
                                        //   in Loop: Header=BB45_3 Depth=1
	tbz	w0, #3, .LBB45_15
// %bb.7:                               // %"$22"
                                        //   in Loop: Header=BB45_3 Depth=1
	ldp	w0, w8, [x0]
	bfi	x0, x8, #32, #32
	b	.LBB45_2
.LBB45_8:                               // %"$6"
                                        //   in Loop: Header=BB45_3 Depth=1
	mov	x0, x20
	bl	evList
	mov	x20, x0
.LBB45_9:                               // %"$3"
                                        //   in Loop: Header=BB45_3 Depth=1
	tst	x20, #0x6
	b.ne	.LBB45_17
// %bb.10:                              // %"$9"
                                        //   in Loop: Header=BB45_3 Depth=1
	add	x8, x22, #208                   // =208
	cmp	x8, x20
	ccmp	x20, x22, #0, hs
	b.hs	.LBB45_18
// %bb.11:                              // %"$13"
                                        //   in Loop: Header=BB45_3 Depth=1
	bfi	x23, x24, #32, #32
	str	x20, [sp]
	tbz	w20, #3, .LBB45_13
// %bb.12:                              // %"$15"
                                        //   in Loop: Header=BB45_3 Depth=1
	ldurb	w8, [x20, #-8]
	ubfx	w8, w8, #3, #1
	cbz	w8, .LBB45_1
	b	.LBB45_14
.LBB45_13:                              //   in Loop: Header=BB45_3 Depth=1
	mov	w8, wzr
	cbz	w8, .LBB45_1
.LBB45_14:                              // %"$16"
                                        //   in Loop: Header=BB45_3 Depth=1
	mov	x0, x19
	mov	x1, x20
	bl	dbTouch
	b	.LBB45_1
.LBB45_15:                              // %"$21"
                                        //   in Loop: Header=BB45_3 Depth=1
	bl	evList
	b	.LBB45_2
.LBB45_16:                              // %"$24"
	ldp	x8, x30, [sp, #8]               // 8-byte Folded Reload
	str	x8, [x21, :lo12:env]
	ldp	x20, x19, [sp, #64]             // 16-byte Folded Reload
	ldp	x22, x21, [sp, #48]             // 16-byte Folded Reload
	ldp	x24, x23, [sp, #32]             // 16-byte Folded Reload
	add	sp, sp, #80                     // =80
	ret
.LBB45_17:                              // %"$8"
	mov	x0, x19
	mov	x1, x20
	bl	varErr
.LBB45_18:                              // %"$12"
	mov	x0, x19
	mov	x1, x20
	bl	protErr
.Lfunc_end45:
	.size	_set, .Lfunc_end45-_set
	.cfi_endproc
                                        // -- End function
	.globl	_setq                           // -- Begin function _setq
	.p2align	4
	.type	_setq,@function
_setq:                                  // @_setq
	.cfi_startproc
// %bb.0:                               // %"$1"
	str	x30, [sp, #-48]!                // 8-byte Folded Spill
	stp	x22, x21, [sp, #16]             // 16-byte Folded Spill
	stp	x20, x19, [sp, #32]             // 16-byte Folded Spill
	.cfi_def_cfa_offset 48
	.cfi_offset w19, -8
	.cfi_offset w20, -16
	.cfi_offset w21, -24
	.cfi_offset w22, -32
	.cfi_offset w30, -48
	mov	x19, x0
	ldp	w22, w8, [x0, #8]
	bfi	x22, x8, #32, #32
	adrp	x21, SymTab+8
	add	x21, x21, :lo12:SymTab+8
	b	.LBB46_3
.LBB46_1:                               // %"$12"
                                        //   in Loop: Header=BB46_3 Depth=1
	bl	evList
.LBB46_2:                               // %"$9"
                                        //   in Loop: Header=BB46_3 Depth=1
	lsr	x8, x0, #32
	stp	w0, w8, [x20]
	tst	x22, #0xf
	b.ne	.LBB46_8
.LBB46_3:                               // %"$2"
                                        // =>This Inner Loop Header: Depth=1
	ldp	w20, w8, [x22]
	bfi	x20, x8, #32, #32
	tst	x20, #0x6
	b.ne	.LBB46_9
// %bb.4:                               // %"$4"
                                        //   in Loop: Header=BB46_3 Depth=1
	add	x8, x21, #208                   // =208
	cmp	x8, x20
	ccmp	x20, x21, #0, hs
	b.hs	.LBB46_10
// %bb.5:                               // %"$8"
                                        //   in Loop: Header=BB46_3 Depth=1
	ldp	w9, w8, [x22, #8]
	bfi	x9, x8, #32, #32
	ldp	w0, w8, [x9]
	bfi	x0, x8, #32, #32
	ldp	w22, w8, [x9, #8]
	bfi	x22, x8, #32, #32
	tst	x0, #0x6
	b.ne	.LBB46_2
// %bb.6:                               // %"$10"
                                        //   in Loop: Header=BB46_3 Depth=1
	tbz	w0, #3, .LBB46_1
// %bb.7:                               // %"$13"
                                        //   in Loop: Header=BB46_3 Depth=1
	ldp	w0, w8, [x0]
	bfi	x0, x8, #32, #32
	b	.LBB46_2
.LBB46_8:                               // %"$15"
	ldp	x20, x19, [sp, #32]             // 16-byte Folded Reload
	ldp	x22, x21, [sp, #16]             // 16-byte Folded Reload
	ldr	x30, [sp], #48                  // 8-byte Folded Reload
	ret
.LBB46_9:                               // %"$3"
	mov	x0, x19
	mov	x1, x20
	bl	varErr
.LBB46_10:                              // %"$7"
	mov	x0, x19
	mov	x1, x20
	bl	protErr
.Lfunc_end46:
	.size	_setq, .Lfunc_end46-_setq
	.cfi_endproc
                                        // -- End function
	.globl	_swap                           // -- Begin function _swap
	.p2align	4
	.type	_swap,@function
_swap:                                  // @_swap
	.cfi_startproc
// %bb.0:                               // %"$1"
	stp	x29, x30, [sp, #-64]!           // 16-byte Folded Spill
	str	x23, [sp, #16]                  // 8-byte Folded Spill
	stp	x22, x21, [sp, #32]             // 16-byte Folded Spill
	stp	x20, x19, [sp, #48]             // 16-byte Folded Spill
	mov	x29, sp
	.cfi_def_cfa w29, 64
	.cfi_offset w19, -8
	.cfi_offset w20, -16
	.cfi_offset w21, -24
	.cfi_offset w22, -32
	.cfi_offset w23, -48
	.cfi_offset w30, -56
	.cfi_offset w29, -64
	mov	x20, x0
	ldp	w9, w8, [x0, #8]
	bfi	x9, x8, #32, #32
	ldp	w19, w8, [x9]
	bfi	x19, x8, #32, #32
	ldp	w22, w21, [x9, #8]
	tst	x19, #0x6
	b.ne	.LBB47_4
// %bb.1:                               // %"$3"
	tbz	w19, #3, .LBB47_3
// %bb.2:                               // %"$6"
	ldp	w19, w8, [x19]
	bfi	x19, x8, #32, #32
	b	.LBB47_4
.LBB47_3:                               // %"$5"
	mov	x0, x19
	bl	evList
	mov	x19, x0
.LBB47_4:                               // %"$2"
	tst	x19, #0x6
	b.ne	.LBB47_14
// %bb.5:                               // %"$8"
	adrp	x8, SymTab+8
	add	x8, x8, :lo12:SymTab+8
	add	x9, x8, #208                    // =208
	cmp	x9, x19
	ccmp	x19, x8, #0, hs
	b.hs	.LBB47_15
// %bb.6:                               // %"$12"
	bfi	x22, x21, #32, #32
	adrp	x21, env
	ldr	x8, [x21, :lo12:env]
	mov	x9, sp
	sub	x23, x9, #16                    // =16
	mov	sp, x23
	lsr	x10, x19, #32
	lsr	x11, x8, #32
	stp	w19, w10, [x9, #-16]
	stp	w8, w11, [x9, #-8]
	str	x23, [x21, :lo12:env]
	tbz	w19, #3, .LBB47_9
// %bb.7:                               // %"$14"
	ldurb	w8, [x19, #-8]
	tbz	w8, #3, .LBB47_9
// %bb.8:                               // %"$15"
	mov	x0, x20
	mov	x1, x19
	bl	dbTouch
.LBB47_9:                               // %"$16"
	ldp	w0, w8, [x22]
	bfi	x0, x8, #32, #32
	tst	x0, #0x6
	b.ne	.LBB47_13
// %bb.10:                              // %"$18"
	tbz	w0, #3, .LBB47_12
// %bb.11:                              // %"$21"
	ldp	w0, w8, [x0]
	bfi	x0, x8, #32, #32
	b	.LBB47_13
.LBB47_12:                              // %"$20"
	bl	evList
.LBB47_13:                              // %"$17"
	ldp	w8, w9, [x19]
	bfi	x8, x9, #32, #32
	lsr	x9, x0, #32
	stp	w0, w9, [x19]
	ldp	w10, w9, [x23, #8]
	bfi	x10, x9, #32, #32
	str	x10, [x21, :lo12:env]
	mov	x0, x8
	mov	sp, x29
	ldp	x20, x19, [sp, #48]             // 16-byte Folded Reload
	ldp	x22, x21, [sp, #32]             // 16-byte Folded Reload
	ldr	x23, [sp, #16]                  // 8-byte Folded Reload
	ldp	x29, x30, [sp], #64             // 16-byte Folded Reload
	ret
.LBB47_14:                              // %"$7"
	mov	x0, x20
	mov	x1, x19
	bl	varErr
.LBB47_15:                              // %"$11"
	mov	x0, x20
	mov	x1, x19
	bl	protErr
.Lfunc_end47:
	.size	_swap, .Lfunc_end47-_swap
	.cfi_endproc
                                        // -- End function
	.globl	_xchg                           // -- Begin function _xchg
	.p2align	4
	.type	_xchg,@function
_xchg:                                  // @_xchg
	.cfi_startproc
// %bb.0:                               // %"$1"
	sub	sp, sp, #80                     // =80
	stp	x30, x25, [sp, #16]             // 16-byte Folded Spill
	stp	x24, x23, [sp, #32]             // 16-byte Folded Spill
	stp	x22, x21, [sp, #48]             // 16-byte Folded Spill
	stp	x20, x19, [sp, #64]             // 16-byte Folded Spill
	.cfi_def_cfa_offset 80
	.cfi_offset w19, -8
	.cfi_offset w20, -16
	.cfi_offset w21, -24
	.cfi_offset w22, -32
	.cfi_offset w23, -40
	.cfi_offset w24, -48
	.cfi_offset w25, -56
	.cfi_offset w30, -64
	mov	x19, x0
	adrp	x22, env
	ldr	x8, [x22, :lo12:env]
	mov	w9, #10
	stp	x9, x8, [sp]
	mov	x8, sp
	str	x8, [x22, :lo12:env]
	ldp	w24, w8, [x0, #8]
	bfi	x24, x8, #32, #32
	adrp	x23, SymTab+8
	add	x23, x23, :lo12:SymTab+8
	b	.LBB48_2
.LBB48_1:                               // %"$32"
                                        //   in Loop: Header=BB48_2 Depth=1
	ldp	w0, w8, [x20]
	ldp	w10, w9, [x21]
	stp	w10, w9, [x20]
	stp	w0, w8, [x21]
	tst	x24, #0xf
	b.ne	.LBB48_22
.LBB48_2:                               // %"$2"
                                        // =>This Inner Loop Header: Depth=1
	ldp	w20, w8, [x24]
	bfi	x20, x8, #32, #32
	ldp	w24, w21, [x24, #8]
	tst	x20, #0x6
	b.ne	.LBB48_6
// %bb.3:                               // %"$4"
                                        //   in Loop: Header=BB48_2 Depth=1
	tbz	w20, #3, .LBB48_5
// %bb.4:                               // %"$7"
                                        //   in Loop: Header=BB48_2 Depth=1
	ldp	w20, w8, [x20]
	bfi	x20, x8, #32, #32
	b	.LBB48_6
.LBB48_5:                               // %"$6"
                                        //   in Loop: Header=BB48_2 Depth=1
	mov	x0, x20
	bl	evList
	mov	x20, x0
.LBB48_6:                               // %"$3"
                                        //   in Loop: Header=BB48_2 Depth=1
	tst	x20, #0x6
	b.ne	.LBB48_25
// %bb.7:                               // %"$9"
                                        //   in Loop: Header=BB48_2 Depth=1
	add	x8, x23, #208                   // =208
	cmp	x8, x20
	ccmp	x20, x23, #0, hs
	b.hs	.LBB48_26
// %bb.8:                               // %"$13"
                                        //   in Loop: Header=BB48_2 Depth=1
	bfi	x24, x21, #32, #32
	str	x20, [sp]
	tbz	w20, #3, .LBB48_10
// %bb.9:                               // %"$15"
                                        //   in Loop: Header=BB48_2 Depth=1
	ldurb	w8, [x20, #-8]
	ubfx	w8, w8, #3, #1
	cbnz	w8, .LBB48_11
	b	.LBB48_12
.LBB48_10:                              //   in Loop: Header=BB48_2 Depth=1
	mov	w8, wzr
	cbz	w8, .LBB48_12
.LBB48_11:                              // %"$16"
                                        //   in Loop: Header=BB48_2 Depth=1
	mov	x0, x19
	mov	x1, x20
	bl	dbTouch
.LBB48_12:                              // %"$17"
                                        //   in Loop: Header=BB48_2 Depth=1
	ldp	w21, w8, [x24]
	bfi	x21, x8, #32, #32
	ldp	w24, w25, [x24, #8]
	tst	x21, #0x6
	b.ne	.LBB48_16
// %bb.13:                              // %"$19"
                                        //   in Loop: Header=BB48_2 Depth=1
	tbz	w21, #3, .LBB48_15
// %bb.14:                              // %"$22"
                                        //   in Loop: Header=BB48_2 Depth=1
	ldp	w21, w8, [x21]
	bfi	x21, x8, #32, #32
	b	.LBB48_16
.LBB48_15:                              // %"$21"
                                        //   in Loop: Header=BB48_2 Depth=1
	mov	x0, x21
	bl	evList
	mov	x21, x0
.LBB48_16:                              // %"$18"
                                        //   in Loop: Header=BB48_2 Depth=1
	tst	x21, #0x6
	b.ne	.LBB48_23
// %bb.17:                              // %"$24"
                                        //   in Loop: Header=BB48_2 Depth=1
	add	x8, x23, #208                   // =208
	cmp	x8, x21
	ccmp	x21, x23, #0, hs
	b.hs	.LBB48_24
// %bb.18:                              // %"$28"
                                        //   in Loop: Header=BB48_2 Depth=1
	tbz	w21, #3, .LBB48_20
// %bb.19:                              // %"$30"
                                        //   in Loop: Header=BB48_2 Depth=1
	ldurb	w8, [x21, #-8]
	ubfx	w8, w8, #3, #1
	bfi	x24, x25, #32, #32
	cbz	w8, .LBB48_1
	b	.LBB48_21
.LBB48_20:                              //   in Loop: Header=BB48_2 Depth=1
	mov	w8, wzr
	bfi	x24, x25, #32, #32
	cbz	w8, .LBB48_1
.LBB48_21:                              // %"$31"
                                        //   in Loop: Header=BB48_2 Depth=1
	mov	x0, x19
	mov	x1, x21
	bl	dbTouch
	b	.LBB48_1
.LBB48_22:                              // %"$34"
	bfi	x0, x8, #32, #32
	ldr	x8, [sp, #8]
	str	x8, [x22, :lo12:env]
	ldp	x20, x19, [sp, #64]             // 16-byte Folded Reload
	ldp	x22, x21, [sp, #48]             // 16-byte Folded Reload
	ldp	x24, x23, [sp, #32]             // 16-byte Folded Reload
	ldp	x30, x25, [sp, #16]             // 16-byte Folded Reload
	add	sp, sp, #80                     // =80
	ret
.LBB48_23:                              // %"$23"
	mov	x0, x19
	mov	x1, x21
	bl	varErr
.LBB48_24:                              // %"$27"
	mov	x0, x19
	mov	x1, x21
	bl	protErr
.LBB48_25:                              // %"$8"
	mov	x0, x19
	mov	x1, x20
	bl	varErr
.LBB48_26:                              // %"$12"
	mov	x0, x19
	mov	x1, x20
	bl	protErr
.Lfunc_end48:
	.size	_xchg, .Lfunc_end48-_xchg
	.cfi_endproc
                                        // -- End function
	.globl	_on                             // -- Begin function _on
	.p2align	4
	.type	_on,@function
_on:                                    // @_on
	.cfi_startproc
// %bb.0:                               // %"$1"
	str	x30, [sp, #-16]!                // 8-byte Folded Spill
	.cfi_def_cfa_offset 16
	.cfi_offset w30, -16
	ldp	w8, w9, [x0, #8]
	bfi	x8, x9, #32, #32
	adrp	x9, SymTab+8
	add	x9, x9, :lo12:SymTab+8
	adrp	x10, SymTab+216
	add	x10, x10, :lo12:SymTab+216
	lsr	x11, x10, #32
.LBB49_1:                               // %"$2"
                                        // =>This Inner Loop Header: Depth=1
	ldp	w1, w12, [x8]
	bfi	x1, x12, #32, #32
	tst	x1, #0x6
	b.ne	.LBB49_5
// %bb.2:                               // %"$4"
                                        //   in Loop: Header=BB49_1 Depth=1
	add	x12, x9, #208                   // =208
	cmp	x12, x1
	ccmp	x1, x9, #0, hs
	b.hs	.LBB49_6
// %bb.3:                               // %"$8"
                                        //   in Loop: Header=BB49_1 Depth=1
	ldp	w8, w12, [x8, #8]
	bfi	x8, x12, #32, #32
	stp	w10, w11, [x1]
	tst	x8, #0xf
	b.eq	.LBB49_1
// %bb.4:                               // %"$10"
	adrp	x0, SymTab+216
	add	x0, x0, :lo12:SymTab+216
	ldr	x30, [sp], #16                  // 8-byte Folded Reload
	ret
.LBB49_5:                               // %"$3"
	bl	varErr
.LBB49_6:                               // %"$7"
	bl	protErr
.Lfunc_end49:
	.size	_on, .Lfunc_end49-_on
	.cfi_endproc
                                        // -- End function
	.globl	_off                            // -- Begin function _off
	.p2align	4
	.type	_off,@function
_off:                                   // @_off
	.cfi_startproc
// %bb.0:                               // %"$1"
	str	x30, [sp, #-16]!                // 8-byte Folded Spill
	.cfi_def_cfa_offset 16
	.cfi_offset w30, -16
	ldp	w8, w9, [x0, #8]
	bfi	x8, x9, #32, #32
	adrp	x9, SymTab+8
	add	x9, x9, :lo12:SymTab+8
	lsr	x10, x9, #32
.LBB50_1:                               // %"$2"
                                        // =>This Inner Loop Header: Depth=1
	ldp	w1, w11, [x8]
	bfi	x1, x11, #32, #32
	tst	x1, #0x6
	b.ne	.LBB50_5
// %bb.2:                               // %"$4"
                                        //   in Loop: Header=BB50_1 Depth=1
	add	x11, x9, #208                   // =208
	cmp	x11, x1
	ccmp	x1, x9, #0, hs
	b.hs	.LBB50_6
// %bb.3:                               // %"$8"
                                        //   in Loop: Header=BB50_1 Depth=1
	ldp	w8, w11, [x8, #8]
	bfi	x8, x11, #32, #32
	stp	w9, w10, [x1]
	tst	x8, #0xf
	b.eq	.LBB50_1
// %bb.4:                               // %"$10"
	adrp	x0, SymTab+8
	add	x0, x0, :lo12:SymTab+8
	ldr	x30, [sp], #16                  // 8-byte Folded Reload
	ret
.LBB50_5:                               // %"$3"
	bl	varErr
.LBB50_6:                               // %"$7"
	bl	protErr
.Lfunc_end50:
	.size	_off, .Lfunc_end50-_off
	.cfi_endproc
                                        // -- End function
	.globl	_onOff                          // -- Begin function _onOff
	.p2align	4
	.type	_onOff,@function
_onOff:                                 // @_onOff
	.cfi_startproc
// %bb.0:                               // %"$1"
	str	x30, [sp, #-16]!                // 8-byte Folded Spill
	.cfi_def_cfa_offset 16
	.cfi_offset w30, -16
	ldp	w9, w8, [x0, #8]
	bfi	x9, x8, #32, #32
	adrp	x10, SymTab+8
	add	x10, x10, :lo12:SymTab+8
	b	.LBB51_2
.LBB51_1:                               // %"$11"
                                        //   in Loop: Header=BB51_2 Depth=1
	lsr	x11, x8, #32
	stp	w8, w11, [x1]
	tst	x9, #0xf
	b.ne	.LBB51_6
.LBB51_2:                               // %"$2"
                                        // =>This Inner Loop Header: Depth=1
	ldp	w1, w8, [x9]
	bfi	x1, x8, #32, #32
	tst	x1, #0x6
	b.ne	.LBB51_7
// %bb.3:                               // %"$4"
                                        //   in Loop: Header=BB51_2 Depth=1
	add	x8, x10, #208                   // =208
	cmp	x8, x1
	ccmp	x1, x10, #0, hs
	b.hs	.LBB51_8
// %bb.4:                               // %"$8"
                                        //   in Loop: Header=BB51_2 Depth=1
	ldp	w9, w11, [x9, #8]
	bfi	x9, x11, #32, #32
	ldp	w12, w11, [x1]
	bfi	x12, x11, #32, #32
	cmp	x12, x10
	b.eq	.LBB51_1
// %bb.5:                               // %"$10"
                                        //   in Loop: Header=BB51_2 Depth=1
	mov	x8, x10
	b	.LBB51_1
.LBB51_6:                               // %"$13"
	mov	x0, x8
	ldr	x30, [sp], #16                  // 8-byte Folded Reload
	ret
.LBB51_7:                               // %"$3"
	bl	varErr
.LBB51_8:                               // %"$7"
	bl	protErr
.Lfunc_end51:
	.size	_onOff, .Lfunc_end51-_onOff
	.cfi_endproc
                                        // -- End function
	.globl	_zero                           // -- Begin function _zero
	.p2align	4
	.type	_zero,@function
_zero:                                  // @_zero
	.cfi_startproc
// %bb.0:                               // %"$1"
	str	x30, [sp, #-16]!                // 8-byte Folded Spill
	.cfi_def_cfa_offset 16
	.cfi_offset w30, -16
	ldp	w8, w9, [x0, #8]
	bfi	x8, x9, #32, #32
	adrp	x9, SymTab+8
	add	x9, x9, :lo12:SymTab+8
	mov	w10, #2
.LBB52_1:                               // %"$2"
                                        // =>This Inner Loop Header: Depth=1
	ldp	w1, w11, [x8]
	bfi	x1, x11, #32, #32
	tst	x1, #0x6
	b.ne	.LBB52_5
// %bb.2:                               // %"$4"
                                        //   in Loop: Header=BB52_1 Depth=1
	add	x11, x9, #208                   // =208
	cmp	x11, x1
	ccmp	x1, x9, #0, hs
	b.hs	.LBB52_6
// %bb.3:                               // %"$8"
                                        //   in Loop: Header=BB52_1 Depth=1
	ldp	w8, w11, [x8, #8]
	bfi	x8, x11, #32, #32
	stp	w10, wzr, [x1]
	tst	x8, #0xf
	b.eq	.LBB52_1
// %bb.4:                               // %"$10"
	mov	w0, #2
	ldr	x30, [sp], #16                  // 8-byte Folded Reload
	ret
.LBB52_5:                               // %"$3"
	bl	varErr
.LBB52_6:                               // %"$7"
	bl	protErr
.Lfunc_end52:
	.size	_zero, .Lfunc_end52-_zero
	.cfi_endproc
                                        // -- End function
	.globl	_one                            // -- Begin function _one
	.p2align	4
	.type	_one,@function
_one:                                   // @_one
	.cfi_startproc
// %bb.0:                               // %"$1"
	str	x30, [sp, #-16]!                // 8-byte Folded Spill
	.cfi_def_cfa_offset 16
	.cfi_offset w30, -16
	ldp	w8, w9, [x0, #8]
	bfi	x8, x9, #32, #32
	adrp	x9, SymTab+8
	add	x9, x9, :lo12:SymTab+8
	mov	w10, #18
.LBB53_1:                               // %"$2"
                                        // =>This Inner Loop Header: Depth=1
	ldp	w1, w11, [x8]
	bfi	x1, x11, #32, #32
	tst	x1, #0x6
	b.ne	.LBB53_5
// %bb.2:                               // %"$4"
                                        //   in Loop: Header=BB53_1 Depth=1
	add	x11, x9, #208                   // =208
	cmp	x11, x1
	ccmp	x1, x9, #0, hs
	b.hs	.LBB53_6
// %bb.3:                               // %"$8"
                                        //   in Loop: Header=BB53_1 Depth=1
	ldp	w8, w11, [x8, #8]
	bfi	x8, x11, #32, #32
	stp	w10, wzr, [x1]
	tst	x8, #0xf
	b.eq	.LBB53_1
// %bb.4:                               // %"$10"
	mov	w0, #18
	ldr	x30, [sp], #16                  // 8-byte Folded Reload
	ret
.LBB53_5:                               // %"$3"
	bl	varErr
.LBB53_6:                               // %"$7"
	bl	protErr
.Lfunc_end53:
	.size	_one, .Lfunc_end53-_one
	.cfi_endproc
                                        // -- End function
	.globl	_default                        // -- Begin function _default
	.p2align	4
	.type	_default,@function
_default:                               // @_default
	.cfi_startproc
// %bb.0:                               // %"$1"
	str	x30, [sp, #-48]!                // 8-byte Folded Spill
	stp	x22, x21, [sp, #16]             // 16-byte Folded Spill
	stp	x20, x19, [sp, #32]             // 16-byte Folded Spill
	.cfi_def_cfa_offset 48
	.cfi_offset w19, -8
	.cfi_offset w20, -16
	.cfi_offset w21, -24
	.cfi_offset w22, -32
	.cfi_offset w30, -48
	mov	x19, x0
	ldp	w8, w9, [x0, #8]
	bfi	x8, x9, #32, #32
	adrp	x21, SymTab+8
	add	x21, x21, :lo12:SymTab+8
	b	.LBB54_4
.LBB54_1:                               // %"$14"
                                        //   in Loop: Header=BB54_4 Depth=1
	bl	evList
.LBB54_2:                               // %"$11"
                                        //   in Loop: Header=BB54_4 Depth=1
	lsr	x8, x0, #32
	stp	w0, w8, [x20]
.LBB54_3:                               // %"$10"
                                        //   in Loop: Header=BB54_4 Depth=1
	ldp	w8, w9, [x22, #8]
	bfi	x8, x9, #32, #32
	tst	x8, #0xf
	b.ne	.LBB54_10
.LBB54_4:                               // %"$2"
                                        // =>This Inner Loop Header: Depth=1
	ldp	w20, w9, [x8]
	bfi	x20, x9, #32, #32
	tst	x20, #0x6
	b.ne	.LBB54_11
// %bb.5:                               // %"$4"
                                        //   in Loop: Header=BB54_4 Depth=1
	add	x9, x21, #208                   // =208
	cmp	x9, x20
	ccmp	x20, x21, #0, hs
	b.hs	.LBB54_12
// %bb.6:                               // %"$8"
                                        //   in Loop: Header=BB54_4 Depth=1
	ldp	w22, w9, [x8, #8]
	bfi	x22, x9, #32, #32
	ldp	w9, w8, [x20]
	bfi	x9, x8, #32, #32
	cmp	x9, x21
	b.ne	.LBB54_3
// %bb.7:                               // %"$9"
                                        //   in Loop: Header=BB54_4 Depth=1
	ldp	w0, w8, [x22]
	bfi	x0, x8, #32, #32
	tst	x0, #0x6
	b.ne	.LBB54_2
// %bb.8:                               // %"$12"
                                        //   in Loop: Header=BB54_4 Depth=1
	tbz	w0, #3, .LBB54_1
// %bb.9:                               // %"$15"
                                        //   in Loop: Header=BB54_4 Depth=1
	ldp	w0, w8, [x0]
	bfi	x0, x8, #32, #32
	b	.LBB54_2
.LBB54_10:                              // %"$18"
	ldp	w0, w8, [x20]
	bfi	x0, x8, #32, #32
	ldp	x20, x19, [sp, #32]             // 16-byte Folded Reload
	ldp	x22, x21, [sp, #16]             // 16-byte Folded Reload
	ldr	x30, [sp], #48                  // 8-byte Folded Reload
	ret
.LBB54_11:                              // %"$3"
	mov	x0, x19
	mov	x1, x20
	bl	varErr
.LBB54_12:                              // %"$7"
	mov	x0, x19
	mov	x1, x20
	bl	protErr
.Lfunc_end54:
	.size	_default, .Lfunc_end54-_default
	.cfi_endproc
                                        // -- End function
	.globl	_push                           // -- Begin function _push
	.p2align	4
	.type	_push,@function
_push:                                  // @_push
	.cfi_startproc
// %bb.0:                               // %"$1"
	stp	x29, x30, [sp, #-64]!           // 16-byte Folded Spill
	stp	x24, x23, [sp, #16]             // 16-byte Folded Spill
	stp	x22, x21, [sp, #32]             // 16-byte Folded Spill
	stp	x20, x19, [sp, #48]             // 16-byte Folded Spill
	mov	x29, sp
	.cfi_def_cfa w29, 64
	.cfi_offset w19, -8
	.cfi_offset w20, -16
	.cfi_offset w21, -24
	.cfi_offset w22, -32
	.cfi_offset w23, -40
	.cfi_offset w24, -48
	.cfi_offset w30, -56
	.cfi_offset w29, -64
	mov	x20, x0
	ldp	w9, w8, [x0, #8]
	bfi	x9, x8, #32, #32
	ldp	w19, w8, [x9]
	bfi	x19, x8, #32, #32
	ldp	w21, w24, [x9, #8]
	tst	x19, #0x6
	b.ne	.LBB55_4
// %bb.1:                               // %"$3"
	tbz	w19, #3, .LBB55_3
// %bb.2:                               // %"$6"
	ldp	w19, w8, [x19]
	bfi	x19, x8, #32, #32
	b	.LBB55_4
.LBB55_3:                               // %"$5"
	mov	x0, x19
	bl	evList
	mov	x19, x0
.LBB55_4:                               // %"$2"
	tst	x19, #0x6
	b.ne	.LBB55_16
// %bb.5:                               // %"$8"
	adrp	x8, SymTab+8
	add	x8, x8, :lo12:SymTab+8
	add	x9, x8, #208                    // =208
	cmp	x9, x19
	ccmp	x19, x8, #0, hs
	b.hs	.LBB55_17
// %bb.6:                               // %"$12"
	adrp	x22, env
	ldr	x8, [x22, :lo12:env]
	mov	x9, sp
	sub	x23, x9, #16                    // =16
	mov	sp, x23
	lsr	x10, x19, #32
	lsr	x11, x8, #32
	stp	w19, w10, [x9, #-16]
	stp	w8, w11, [x9, #-8]
	str	x23, [x22, :lo12:env]
	tbz	w19, #3, .LBB55_8
// %bb.7:                               // %"$14"
	ldurb	w8, [x19, #-8]
	ubfx	w8, w8, #3, #1
	bfi	x21, x24, #32, #32
	cbz	w8, .LBB55_12
	b	.LBB55_9
.LBB55_8:
	mov	w8, wzr
	bfi	x21, x24, #32, #32
	cbz	w8, .LBB55_12
.LBB55_9:                               // %"$15"
	mov	x0, x20
	mov	x1, x19
	bl	dbTouch
	b	.LBB55_12
.LBB55_10:                              // %"$21"
                                        //   in Loop: Header=BB55_12 Depth=1
	mov	x0, x20
	bl	evList
	mov	x20, x0
.LBB55_11:                              // %"$18"
                                        //   in Loop: Header=BB55_12 Depth=1
	ldp	w1, w8, [x19]
	bfi	x1, x8, #32, #32
	mov	x0, x20
	bl	cons
	lsr	x8, x0, #32
	stp	w0, w8, [x19]
	tst	x21, #0xf
	b.ne	.LBB55_15
.LBB55_12:                              // %"$17"
                                        // =>This Inner Loop Header: Depth=1
	ldp	w20, w8, [x21]
	bfi	x20, x8, #32, #32
	ldp	w21, w8, [x21, #8]
	bfi	x21, x8, #32, #32
	tst	x20, #0x6
	b.ne	.LBB55_11
// %bb.13:                              // %"$19"
                                        //   in Loop: Header=BB55_12 Depth=1
	tbz	w20, #3, .LBB55_10
// %bb.14:                              // %"$22"
                                        //   in Loop: Header=BB55_12 Depth=1
	ldp	w20, w8, [x20]
	bfi	x20, x8, #32, #32
	b	.LBB55_11
.LBB55_15:                              // %"$24"
	ldp	w9, w8, [x23, #8]
	bfi	x9, x8, #32, #32
	str	x9, [x22, :lo12:env]
	mov	x0, x20
	mov	sp, x29
	ldp	x20, x19, [sp, #48]             // 16-byte Folded Reload
	ldp	x22, x21, [sp, #32]             // 16-byte Folded Reload
	ldp	x24, x23, [sp, #16]             // 16-byte Folded Reload
	ldp	x29, x30, [sp], #64             // 16-byte Folded Reload
	ret
.LBB55_16:                              // %"$7"
	mov	x0, x20
	mov	x1, x19
	bl	varErr
.LBB55_17:                              // %"$11"
	mov	x0, x20
	mov	x1, x19
	bl	protErr
.Lfunc_end55:
	.size	_push, .Lfunc_end55-_push
	.cfi_endproc
                                        // -- End function
	.globl	_push1                          // -- Begin function _push1
	.p2align	4
	.type	_push1,@function
_push1:                                 // @_push1
	.cfi_startproc
// %bb.0:                               // %"$1"
	stp	x29, x30, [sp, #-80]!           // 16-byte Folded Spill
	str	x25, [sp, #16]                  // 8-byte Folded Spill
	stp	x24, x23, [sp, #32]             // 16-byte Folded Spill
	stp	x22, x21, [sp, #48]             // 16-byte Folded Spill
	stp	x20, x19, [sp, #64]             // 16-byte Folded Spill
	mov	x29, sp
	.cfi_def_cfa w29, 80
	.cfi_offset w19, -8
	.cfi_offset w20, -16
	.cfi_offset w21, -24
	.cfi_offset w22, -32
	.cfi_offset w23, -40
	.cfi_offset w24, -48
	.cfi_offset w25, -64
	.cfi_offset w30, -72
	.cfi_offset w29, -80
	mov	x20, x0
	ldp	w9, w8, [x0, #8]
	bfi	x9, x8, #32, #32
	ldp	w19, w8, [x9]
	bfi	x19, x8, #32, #32
	ldp	w22, w21, [x9, #8]
	tst	x19, #0x6
	b.ne	.LBB56_4
// %bb.1:                               // %"$3"
	tbz	w19, #3, .LBB56_3
// %bb.2:                               // %"$6"
	ldp	w19, w8, [x19]
	bfi	x19, x8, #32, #32
	b	.LBB56_4
.LBB56_3:                               // %"$5"
	mov	x0, x19
	bl	evList
	mov	x19, x0
.LBB56_4:                               // %"$2"
	tst	x19, #0x6
	b.ne	.LBB56_20
// %bb.5:                               // %"$8"
	adrp	x8, SymTab+8
	add	x8, x8, :lo12:SymTab+8
	add	x9, x8, #208                    // =208
	cmp	x9, x19
	ccmp	x19, x8, #0, hs
	b.hs	.LBB56_21
// %bb.6:                               // %"$12"
	adrp	x23, env
	ldr	x8, [x23, :lo12:env]
	mov	x9, sp
	sub	x24, x9, #16                    // =16
	mov	sp, x24
	lsr	x10, x19, #32
	lsr	x11, x8, #32
	stp	w19, w10, [x9, #-16]
	stp	w8, w11, [x9, #-8]
	str	x24, [x23, :lo12:env]
	tbz	w19, #3, .LBB56_8
// %bb.7:                               // %"$14"
	ldurb	w8, [x19, #-8]
	ubfx	w8, w8, #3, #1
	bfi	x22, x21, #32, #32
	cbz	w8, .LBB56_12
	b	.LBB56_9
.LBB56_8:
	mov	w8, wzr
	bfi	x22, x21, #32, #32
	cbz	w8, .LBB56_12
.LBB56_9:                               // %"$15"
	mov	x0, x20
	mov	x1, x19
	bl	dbTouch
	b	.LBB56_12
.LBB56_10:                              // %"$29.critedge"
                                        //   in Loop: Header=BB56_12 Depth=1
	mov	x0, x20
	mov	x1, x21
	bl	cons
	lsr	x8, x0, #32
	stp	w0, w8, [x19]
.LBB56_11:                              // %"$30"
                                        //   in Loop: Header=BB56_12 Depth=1
	tst	x22, #0xf
	b.ne	.LBB56_19
.LBB56_12:                              // %"$17"
                                        // =>This Loop Header: Depth=1
                                        //     Child Loop BB56_17 Depth 2
	ldp	w20, w8, [x22]
	bfi	x20, x8, #32, #32
	ldp	w22, w8, [x22, #8]
	bfi	x22, x8, #32, #32
	tst	x20, #0x6
	b.ne	.LBB56_16
// %bb.13:                              // %"$19"
                                        //   in Loop: Header=BB56_12 Depth=1
	tbz	w20, #3, .LBB56_15
// %bb.14:                              // %"$22"
                                        //   in Loop: Header=BB56_12 Depth=1
	ldp	w20, w8, [x20]
	bfi	x20, x8, #32, #32
	b	.LBB56_16
.LBB56_15:                              // %"$21"
                                        //   in Loop: Header=BB56_12 Depth=1
	mov	x0, x20
	bl	evList
	mov	x20, x0
.LBB56_16:                              // %"$18"
                                        //   in Loop: Header=BB56_12 Depth=1
	ldp	w21, w8, [x19]
	bfi	x21, x8, #32, #32
	mov	x25, x21
	tst	x25, #0xf
	b.ne	.LBB56_10
.LBB56_17:                              // %"$24"
                                        //   Parent Loop BB56_12 Depth=1
                                        // =>  This Inner Loop Header: Depth=2
	ldp	w1, w8, [x25]
	bfi	x1, x8, #32, #32
	mov	x0, x20
	bl	equal
	tbnz	w0, #0, .LBB56_11
// %bb.18:                              // %"$27"
                                        //   in Loop: Header=BB56_17 Depth=2
	ldp	w25, w8, [x25, #8]
	bfi	x25, x8, #32, #32
	tst	x25, #0xf
	b.eq	.LBB56_17
	b	.LBB56_10
.LBB56_19:                              // %"$32"
	ldp	w9, w8, [x24, #8]
	bfi	x9, x8, #32, #32
	str	x9, [x23, :lo12:env]
	mov	x0, x20
	mov	sp, x29
	ldp	x20, x19, [sp, #64]             // 16-byte Folded Reload
	ldp	x22, x21, [sp, #48]             // 16-byte Folded Reload
	ldp	x24, x23, [sp, #32]             // 16-byte Folded Reload
	ldr	x25, [sp, #16]                  // 8-byte Folded Reload
	ldp	x29, x30, [sp], #80             // 16-byte Folded Reload
	ret
.LBB56_20:                              // %"$7"
	mov	x0, x20
	mov	x1, x19
	bl	varErr
.LBB56_21:                              // %"$11"
	mov	x0, x20
	mov	x1, x19
	bl	protErr
.Lfunc_end56:
	.size	_push1, .Lfunc_end56-_push1
	.cfi_endproc
                                        // -- End function
	.globl	_push1q                         // -- Begin function _push1q
	.p2align	4
	.type	_push1q,@function
_push1q:                                // @_push1q
	.cfi_startproc
// %bb.0:                               // %"$1"
	stp	x29, x30, [sp, #-64]!           // 16-byte Folded Spill
	stp	x24, x23, [sp, #16]             // 16-byte Folded Spill
	stp	x22, x21, [sp, #32]             // 16-byte Folded Spill
	stp	x20, x19, [sp, #48]             // 16-byte Folded Spill
	mov	x29, sp
	.cfi_def_cfa w29, 64
	.cfi_offset w19, -8
	.cfi_offset w20, -16
	.cfi_offset w21, -24
	.cfi_offset w22, -32
	.cfi_offset w23, -40
	.cfi_offset w24, -48
	.cfi_offset w30, -56
	.cfi_offset w29, -64
	mov	x20, x0
	ldp	w9, w8, [x0, #8]
	bfi	x9, x8, #32, #32
	ldp	w19, w8, [x9]
	bfi	x19, x8, #32, #32
	ldp	w21, w24, [x9, #8]
	tst	x19, #0x6
	b.ne	.LBB57_4
// %bb.1:                               // %"$3"
	tbz	w19, #3, .LBB57_3
// %bb.2:                               // %"$6"
	ldp	w19, w8, [x19]
	bfi	x19, x8, #32, #32
	b	.LBB57_4
.LBB57_3:                               // %"$5"
	mov	x0, x19
	bl	evList
	mov	x19, x0
.LBB57_4:                               // %"$2"
	tst	x19, #0x6
	b.ne	.LBB57_20
// %bb.5:                               // %"$8"
	adrp	x8, SymTab+8
	add	x8, x8, :lo12:SymTab+8
	add	x9, x8, #208                    // =208
	cmp	x9, x19
	ccmp	x19, x8, #0, hs
	b.hs	.LBB57_21
// %bb.6:                               // %"$12"
	adrp	x22, env
	ldr	x8, [x22, :lo12:env]
	mov	x9, sp
	sub	x23, x9, #16                    // =16
	mov	sp, x23
	lsr	x10, x19, #32
	lsr	x11, x8, #32
	stp	w19, w10, [x9, #-16]
	stp	w8, w11, [x9, #-8]
	str	x23, [x22, :lo12:env]
	tbz	w19, #3, .LBB57_8
// %bb.7:                               // %"$14"
	ldurb	w8, [x19, #-8]
	ubfx	w8, w8, #3, #1
	bfi	x21, x24, #32, #32
	cbz	w8, .LBB57_12
	b	.LBB57_9
.LBB57_8:
	mov	w8, wzr
	bfi	x21, x24, #32, #32
	cbz	w8, .LBB57_12
.LBB57_9:                               // %"$15"
	mov	x0, x20
	mov	x1, x19
	bl	dbTouch
	b	.LBB57_12
.LBB57_10:                              // %"$29.critedge"
                                        //   in Loop: Header=BB57_12 Depth=1
	mov	x0, x20
	bl	cons
	lsr	x8, x0, #32
	stp	w0, w8, [x19]
.LBB57_11:                              // %"$30"
                                        //   in Loop: Header=BB57_12 Depth=1
	tst	x21, #0xf
	b.ne	.LBB57_19
.LBB57_12:                              // %"$17"
                                        // =>This Loop Header: Depth=1
                                        //     Child Loop BB57_17 Depth 2
	ldp	w20, w8, [x21]
	bfi	x20, x8, #32, #32
	ldp	w21, w8, [x21, #8]
	bfi	x21, x8, #32, #32
	tst	x20, #0x6
	b.ne	.LBB57_16
// %bb.13:                              // %"$19"
                                        //   in Loop: Header=BB57_12 Depth=1
	tbz	w20, #3, .LBB57_15
// %bb.14:                              // %"$22"
                                        //   in Loop: Header=BB57_12 Depth=1
	ldp	w20, w8, [x20]
	bfi	x20, x8, #32, #32
	b	.LBB57_16
.LBB57_15:                              // %"$21"
                                        //   in Loop: Header=BB57_12 Depth=1
	mov	x0, x20
	bl	evList
	mov	x20, x0
.LBB57_16:                              // %"$18"
                                        //   in Loop: Header=BB57_12 Depth=1
	ldp	w1, w8, [x19]
	bfi	x1, x8, #32, #32
	mov	x8, x1
	tst	x8, #0xf
	b.ne	.LBB57_10
.LBB57_17:                              // %"$24"
                                        //   Parent Loop BB57_12 Depth=1
                                        // =>  This Inner Loop Header: Depth=2
	ldp	w10, w9, [x8]
	bfi	x10, x9, #32, #32
	cmp	x20, x10
	b.eq	.LBB57_11
// %bb.18:                              // %"$27"
                                        //   in Loop: Header=BB57_17 Depth=2
	ldp	w8, w9, [x8, #8]
	bfi	x8, x9, #32, #32
	tst	x8, #0xf
	b.eq	.LBB57_17
	b	.LBB57_10
.LBB57_19:                              // %"$32"
	ldp	w9, w8, [x23, #8]
	bfi	x9, x8, #32, #32
	str	x9, [x22, :lo12:env]
	mov	x0, x20
	mov	sp, x29
	ldp	x20, x19, [sp, #48]             // 16-byte Folded Reload
	ldp	x22, x21, [sp, #32]             // 16-byte Folded Reload
	ldp	x24, x23, [sp, #16]             // 16-byte Folded Reload
	ldp	x29, x30, [sp], #64             // 16-byte Folded Reload
	ret
.LBB57_20:                              // %"$7"
	mov	x0, x20
	mov	x1, x19
	bl	varErr
.LBB57_21:                              // %"$11"
	mov	x0, x20
	mov	x1, x19
	bl	protErr
.Lfunc_end57:
	.size	_push1q, .Lfunc_end57-_push1q
	.cfi_endproc
                                        // -- End function
	.globl	_pop                            // -- Begin function _pop
	.p2align	4
	.type	_pop,@function
_pop:                                   // @_pop
	.cfi_startproc
// %bb.0:                               // %"$1"
	str	x30, [sp, #-32]!                // 8-byte Folded Spill
	stp	x20, x19, [sp, #16]             // 16-byte Folded Spill
	.cfi_def_cfa_offset 32
	.cfi_offset w19, -8
	.cfi_offset w20, -16
	.cfi_offset w30, -32
	mov	x20, x0
	ldp	w9, w8, [x0, #8]
	bfi	x9, x8, #32, #32
	ldp	w19, w8, [x9]
	bfi	x19, x8, #32, #32
	tst	x19, #0x6
	b.ne	.LBB58_4
// %bb.1:                               // %"$3"
	tbz	w19, #3, .LBB58_3
// %bb.2:                               // %"$6"
	ldp	w19, w8, [x19]
	bfi	x19, x8, #32, #32
	b	.LBB58_4
.LBB58_3:                               // %"$5"
	mov	x0, x19
	bl	evList
	mov	x19, x0
.LBB58_4:                               // %"$2"
	tst	x19, #0x6
	b.ne	.LBB58_12
// %bb.5:                               // %"$8"
	adrp	x8, SymTab+8
	add	x8, x8, :lo12:SymTab+8
	add	x9, x8, #208                    // =208
	cmp	x9, x19
	ccmp	x19, x8, #0, hs
	b.hs	.LBB58_13
// %bb.6:                               // %"$12"
	tbz	w19, #3, .LBB58_9
// %bb.7:                               // %"$14"
	ldurb	w8, [x19, #-8]
	tbz	w8, #3, .LBB58_9
// %bb.8:                               // %"$15"
	mov	x0, x20
	mov	x1, x19
	bl	dbTouch
.LBB58_9:                               // %"$16"
	ldp	w0, w8, [x19]
	bfi	x0, x8, #32, #32
	tst	x0, #0xf
	b.ne	.LBB58_11
// %bb.10:                              // %"$18"
	ldp	w8, w9, [x0, #8]
	stp	w8, w9, [x19]
	ldp	w0, w8, [x0]
	bfi	x0, x8, #32, #32
.LBB58_11:                              // %"$19"
	ldp	x20, x19, [sp, #16]             // 16-byte Folded Reload
	ldr	x30, [sp], #32                  // 8-byte Folded Reload
	ret
.LBB58_12:                              // %"$7"
	mov	x0, x20
	mov	x1, x19
	bl	varErr
.LBB58_13:                              // %"$11"
	mov	x0, x20
	mov	x1, x19
	bl	protErr
.Lfunc_end58:
	.size	_pop, .Lfunc_end58-_pop
	.cfi_endproc
                                        // -- End function
	.globl	_popq                           // -- Begin function _popq
	.p2align	4
	.type	_popq,@function
_popq:                                  // @_popq
	.cfi_startproc
// %bb.0:                               // %"$1"
	str	x30, [sp, #-16]!                // 8-byte Folded Spill
	.cfi_def_cfa_offset 16
	.cfi_offset w30, -16
	ldp	w9, w8, [x0, #8]
	bfi	x9, x8, #32, #32
	ldp	w1, w8, [x9]
	bfi	x1, x8, #32, #32
	tst	x1, #0x6
	b.ne	.LBB59_5
// %bb.1:                               // %"$3"
	adrp	x8, SymTab+8
	add	x8, x8, :lo12:SymTab+8
	add	x9, x8, #208                    // =208
	cmp	x9, x1
	ccmp	x1, x8, #0, hs
	b.hs	.LBB59_6
// %bb.2:                               // %"$7"
	ldp	w0, w8, [x1]
	bfi	x0, x8, #32, #32
	tst	x0, #0xf
	b.eq	.LBB59_4
// %bb.3:                               // %"$10"
	ldr	x30, [sp], #16                  // 8-byte Folded Reload
	ret
.LBB59_4:                               // %"$9"
	ldp	w8, w9, [x0, #8]
	stp	w8, w9, [x1]
	ldp	w0, w8, [x0]
	bfi	x0, x8, #32, #32
	ldr	x30, [sp], #16                  // 8-byte Folded Reload
	ret
.LBB59_5:                               // %"$2"
	bl	varErr
.LBB59_6:                               // %"$6"
	bl	protErr
.Lfunc_end59:
	.size	_popq, .Lfunc_end59-_popq
	.cfi_endproc
                                        // -- End function
	.globl	_cut                            // -- Begin function _cut
	.p2align	4
	.type	_cut,@function
_cut:                                   // @_cut
	.cfi_startproc
// %bb.0:                               // %"$1"
	stp	x29, x30, [sp, #-80]!           // 16-byte Folded Spill
	stp	x26, x25, [sp, #16]             // 16-byte Folded Spill
	stp	x24, x23, [sp, #32]             // 16-byte Folded Spill
	stp	x22, x21, [sp, #48]             // 16-byte Folded Spill
	stp	x20, x19, [sp, #64]             // 16-byte Folded Spill
	mov	x29, sp
	.cfi_def_cfa w29, 80
	.cfi_offset w19, -8
	.cfi_offset w20, -16
	.cfi_offset w21, -24
	.cfi_offset w22, -32
	.cfi_offset w23, -40
	.cfi_offset w24, -48
	.cfi_offset w25, -56
	.cfi_offset w26, -64
	.cfi_offset w30, -72
	.cfi_offset w29, -80
	mov	x22, x0
	ldp	w20, w8, [x0, #8]
	bfi	x20, x8, #32, #32
	mov	x1, x20
	bl	evCnt
	adrp	x21, SymTab+8
	add	x21, x21, :lo12:SymTab+8
	cmp	x0, #1                          // =1
	b.lt	.LBB60_16
// %bb.1:                               // %"$3"
	mov	x19, x0
	ldp	w9, w8, [x20, #8]
	bfi	x9, x8, #32, #32
	ldp	w20, w8, [x9]
	bfi	x20, x8, #32, #32
	tst	x20, #0x6
	b.ne	.LBB60_5
// %bb.2:                               // %"$6"
	tbz	w20, #3, .LBB60_4
// %bb.3:                               // %"$9"
	ldp	w20, w8, [x20]
	bfi	x20, x8, #32, #32
	b	.LBB60_5
.LBB60_4:                               // %"$8"
	mov	x0, x20
	bl	evList
	mov	x20, x0
.LBB60_5:                               // %"$5"
	tst	x20, #0x6
	b.ne	.LBB60_17
// %bb.6:                               // %"$11"
	add	x8, x21, #208                   // =208
	cmp	x8, x20
	ccmp	x20, x21, #0, hs
	b.hs	.LBB60_18
// %bb.7:                               // %"$15"
	tbz	w20, #3, .LBB60_9
// %bb.8:                               // %"$17"
	ldurb	w8, [x20, #-8]
	ubfx	w8, w8, #3, #1
	cbnz	w8, .LBB60_10
	b	.LBB60_11
.LBB60_9:
	mov	w8, wzr
	cbz	w8, .LBB60_11
.LBB60_10:                              // %"$18"
	mov	x0, x22
	mov	x1, x20
	bl	dbTouch
.LBB60_11:                              // %"$19"
	ldp	w21, w8, [x20]
	bfi	x21, x8, #32, #32
	tst	x21, #0xf
	b.ne	.LBB60_16
// %bb.12:                              // %"$21"
	adrp	x23, env
	ldr	x8, [x23, :lo12:env]
	mov	x9, sp
	sub	x24, x9, #16                    // =16
	mov	sp, x24
	lsr	x10, x21, #32
	stp	w21, w10, [x9, #-16]
	lsr	x10, x8, #32
	stp	w8, w10, [x9, #-8]
	str	x24, [x23, :lo12:env]
	ldp	w0, w8, [x21]
	bfi	x0, x8, #32, #32
	ldp	w25, w8, [x21, #8]
	bfi	x25, x8, #32, #32
	adrp	x22, SymTab+8
	add	x22, x22, :lo12:SymTab+8
	mov	x1, x22
	bl	cons
	mov	x21, x0
	ldr	x8, [x23, :lo12:env]
	mov	x9, sp
	sub	x10, x9, #16                    // =16
	mov	sp, x10
	lsr	x11, x0, #32
	lsr	x12, x8, #32
	stp	w21, w11, [x9, #-16]
	stp	w8, w12, [x9, #-8]
	mov	x26, x0
	str	x10, [x23, :lo12:env]
.LBB60_13:                              // %"$23"
                                        // =>This Inner Loop Header: Depth=1
	subs	x8, x19, #1                     // =1
	cset	w9, ne
	tst	x25, #0xf
	csel	x19, x19, x8, ne
	csel	w8, wzr, w9, ne
	cbz	w8, .LBB60_15
// %bb.14:                              // %"$26"
                                        //   in Loop: Header=BB60_13 Depth=1
	ldp	w0, w8, [x25]
	bfi	x0, x8, #32, #32
	ldp	w25, w8, [x25, #8]
	bfi	x25, x8, #32, #32
	mov	x1, x22
	bl	cons
	lsr	x8, x0, #32
	stp	w0, w8, [x26, #8]
	mov	x26, x0
	b	.LBB60_13
.LBB60_15:                              // %"$27"
	lsr	x8, x25, #32
	stp	w25, w8, [x20]
	ldp	w9, w8, [x24, #8]
	bfi	x9, x8, #32, #32
	str	x9, [x23, :lo12:env]
.LBB60_16:                              // %"$4"
	mov	x0, x21
	mov	sp, x29
	ldp	x20, x19, [sp, #64]             // 16-byte Folded Reload
	ldp	x22, x21, [sp, #48]             // 16-byte Folded Reload
	ldp	x24, x23, [sp, #32]             // 16-byte Folded Reload
	ldp	x26, x25, [sp, #16]             // 16-byte Folded Reload
	ldp	x29, x30, [sp], #80             // 16-byte Folded Reload
	ret
.LBB60_17:                              // %"$10"
	mov	x0, x22
	mov	x1, x20
	bl	varErr
.LBB60_18:                              // %"$14"
	mov	x0, x22
	mov	x1, x20
	bl	protErr
.Lfunc_end60:
	.size	_cut, .Lfunc_end60-_cut
	.cfi_endproc
                                        // -- End function
	.globl	_del                            // -- Begin function _del
	.p2align	4
	.type	_del,@function
_del:                                   // @_del
	.cfi_startproc
// %bb.0:                               // %"$1"
	stp	x29, x30, [sp, #-96]!           // 16-byte Folded Spill
	stp	x28, x27, [sp, #16]             // 16-byte Folded Spill
	stp	x26, x25, [sp, #32]             // 16-byte Folded Spill
	stp	x24, x23, [sp, #48]             // 16-byte Folded Spill
	stp	x22, x21, [sp, #64]             // 16-byte Folded Spill
	stp	x20, x19, [sp, #80]             // 16-byte Folded Spill
	mov	x29, sp
	sub	sp, sp, #16                     // =16
	.cfi_def_cfa w29, 96
	.cfi_offset w19, -8
	.cfi_offset w20, -16
	.cfi_offset w21, -24
	.cfi_offset w22, -32
	.cfi_offset w23, -40
	.cfi_offset w24, -48
	.cfi_offset w25, -56
	.cfi_offset w26, -64
	.cfi_offset w27, -72
	.cfi_offset w28, -80
	.cfi_offset w30, -88
	.cfi_offset w29, -96
	mov	x22, x0
	ldp	w9, w8, [x0, #8]
	bfi	x9, x8, #32, #32
	ldp	w19, w8, [x9]
	bfi	x19, x8, #32, #32
	ldp	w21, w8, [x9, #8]
	bfi	x21, x8, #32, #32
	tst	x19, #0x6
	b.ne	.LBB61_4
// %bb.1:                               // %"$3"
	tbz	w19, #3, .LBB61_3
// %bb.2:                               // %"$6"
	ldp	w19, w8, [x19]
	bfi	x19, x8, #32, #32
	b	.LBB61_4
.LBB61_3:                               // %"$5"
	mov	x0, x19
	bl	evList
	mov	x19, x0
.LBB61_4:                               // %"$2"
	adrp	x25, env
	ldr	x8, [x25, :lo12:env]
	mov	x9, sp
	sub	x27, x9, #16                    // =16
	mov	sp, x27
	lsr	x10, x19, #32
	stp	w19, w10, [x9, #-16]
	lsr	x10, x8, #32
	stp	w8, w10, [x9, #-8]
	str	x27, [x25, :lo12:env]
	ldp	w20, w8, [x21]
	bfi	x20, x8, #32, #32
	ldp	w23, w24, [x21, #8]
	tst	x20, #0x6
	b.ne	.LBB61_8
// %bb.5:                               // %"$8"
	tbz	w20, #3, .LBB61_7
// %bb.6:                               // %"$11"
	ldp	w20, w8, [x20]
	bfi	x20, x8, #32, #32
	b	.LBB61_8
.LBB61_7:                               // %"$10"
	mov	x0, x20
	bl	evList
	mov	x20, x0
.LBB61_8:                               // %"$7"
	tst	x20, #0x6
	b.ne	.LBB61_28
// %bb.9:                               // %"$13"
	adrp	x21, SymTab+8
	add	x21, x21, :lo12:SymTab+8
	add	x8, x21, #208                   // =208
	cmp	x8, x20
	ccmp	x20, x21, #0, hs
	b.hs	.LBB61_29
// %bb.10:                              // %"$17"
	bfi	x23, x24, #32, #32
	ldr	x8, [x25, :lo12:env]
	mov	x9, sp
	sub	x10, x9, #16                    // =16
	mov	sp, x10
	lsr	x11, x20, #32
	stp	w20, w11, [x9, #-16]
	lsr	x11, x8, #32
	stp	w8, w11, [x9, #-8]
	str	x10, [x25, :lo12:env]
	ldp	w23, w8, [x23]
	bfi	x23, x8, #32, #32
	tst	x23, #0x6
	b.ne	.LBB61_13
// %bb.11:                              // %"$19"
	tbz	w23, #3, .LBB61_16
// %bb.12:                              // %"$22"
	ldp	w23, w8, [x23]
	bfi	x23, x8, #32, #32
.LBB61_13:                              // %"$18"
	tbz	w20, #3, .LBB61_17
.LBB61_14:                              // %"$24"
	ldurb	w8, [x20, #-8]
	tbz	w8, #3, .LBB61_17
// %bb.15:                              // %"$25"
	mov	x0, x22
	mov	x1, x20
	bl	dbTouch
	b	.LBB61_17
.LBB61_16:                              // %"$21"
	mov	x0, x23
	bl	evList
	mov	x23, x0
	tbnz	w20, #3, .LBB61_14
.LBB61_17:                              // %"$26"
	ldp	w22, w8, [x20]
	bfi	x22, x8, #32, #32
.LBB61_18:                              // %"$27"
                                        // =>This Inner Loop Header: Depth=1
	tst	x22, #0xf
	b.ne	.LBB61_27
// %bb.19:                              // %"$28"
                                        //   in Loop: Header=BB61_18 Depth=1
	ldp	w24, w8, [x22]
	bfi	x24, x8, #32, #32
	ldp	w22, w8, [x22, #8]
	bfi	x22, x8, #32, #32
	mov	x0, x19
	mov	x1, x24
	bl	equal
	tbz	w0, #0, .LBB61_21
// %bb.20:                              // %"$31"
                                        //   in Loop: Header=BB61_18 Depth=1
	lsr	x8, x22, #32
	stp	w22, w8, [x20]
	cmp	x23, x21
	b.ne	.LBB61_18
	b	.LBB61_27
.LBB61_21:                              // %"$32"
	mov	x0, x24
	mov	x1, x21
	bl	cons
	mov	x26, x0
	ldr	x8, [x25, :lo12:env]
	mov	x9, sp
	sub	x28, x9, #16                    // =16
	mov	sp, x28
	lsr	x11, x0, #32
	lsr	x10, x8, #32
	stur	x11, [x29, #-8]                 // 8-byte Folded Spill
	stp	w26, w11, [x9, #-16]
	stp	w8, w10, [x9, #-8]
	mov	x24, x0
	str	x28, [x25, :lo12:env]
	b	.LBB61_23
.LBB61_22:                              // %"$37"
                                        //   in Loop: Header=BB61_23 Depth=1
	mov	x0, x25
	mov	x1, x21
	bl	cons
	lsr	x8, x0, #32
	stp	w0, w8, [x24, #8]
	mov	x24, x0
.LBB61_23:                              // %"$33"
                                        // =>This Inner Loop Header: Depth=1
	tst	x22, #0xf
	b.ne	.LBB61_26
// %bb.24:                              // %"$34"
                                        //   in Loop: Header=BB61_23 Depth=1
	ldp	w25, w8, [x22]
	bfi	x25, x8, #32, #32
	ldp	w22, w8, [x22, #8]
	bfi	x22, x8, #32, #32
	mov	x0, x19
	mov	x1, x25
	bl	equal
	tbz	w0, #0, .LBB61_22
// %bb.25:                              // %"$36"
                                        //   in Loop: Header=BB61_23 Depth=1
	cmp	x23, x21
	b.ne	.LBB61_23
.LBB61_26:                              // %"$35"
	ldp	w9, w8, [x28, #8]
	bfi	x9, x8, #32, #32
	adrp	x25, env
	str	x9, [x25, :lo12:env]
	lsr	x8, x22, #32
	stp	w22, w8, [x24, #8]
	ldur	x8, [x29, #-8]                  // 8-byte Folded Reload
	stp	w26, w8, [x20]
	mov	x22, x26
.LBB61_27:                              // %"$29"
	ldp	w9, w8, [x27, #8]
	bfi	x9, x8, #32, #32
	str	x9, [x25, :lo12:env]
	mov	x0, x22
	mov	sp, x29
	ldp	x20, x19, [sp, #80]             // 16-byte Folded Reload
	ldp	x22, x21, [sp, #64]             // 16-byte Folded Reload
	ldp	x24, x23, [sp, #48]             // 16-byte Folded Reload
	ldp	x26, x25, [sp, #32]             // 16-byte Folded Reload
	ldp	x28, x27, [sp, #16]             // 16-byte Folded Reload
	ldp	x29, x30, [sp], #96             // 16-byte Folded Reload
	ret
.LBB61_28:                              // %"$12"
	mov	x0, x22
	mov	x1, x20
	bl	varErr
.LBB61_29:                              // %"$16"
	mov	x0, x22
	mov	x1, x20
	bl	protErr
.Lfunc_end61:
	.size	_del, .Lfunc_end61-_del
	.cfi_endproc
                                        // -- End function
	.globl	_queue                          // -- Begin function _queue
	.p2align	4
	.type	_queue,@function
_queue:                                 // @_queue
	.cfi_startproc
// %bb.0:                               // %"$1"
	stp	x29, x30, [sp, #-64]!           // 16-byte Folded Spill
	str	x23, [sp, #16]                  // 8-byte Folded Spill
	stp	x22, x21, [sp, #32]             // 16-byte Folded Spill
	stp	x20, x19, [sp, #48]             // 16-byte Folded Spill
	mov	x29, sp
	.cfi_def_cfa w29, 64
	.cfi_offset w19, -8
	.cfi_offset w20, -16
	.cfi_offset w21, -24
	.cfi_offset w22, -32
	.cfi_offset w23, -48
	.cfi_offset w30, -56
	.cfi_offset w29, -64
	mov	x20, x0
	ldp	w9, w8, [x0, #8]
	bfi	x9, x8, #32, #32
	ldp	w19, w8, [x9]
	bfi	x19, x8, #32, #32
	ldp	w23, w21, [x9, #8]
	tst	x19, #0x6
	b.ne	.LBB62_4
// %bb.1:                               // %"$3"
	tbz	w19, #3, .LBB62_3
// %bb.2:                               // %"$6"
	ldp	w19, w8, [x19]
	bfi	x19, x8, #32, #32
	b	.LBB62_4
.LBB62_3:                               // %"$5"
	mov	x0, x19
	bl	evList
	mov	x19, x0
.LBB62_4:                               // %"$2"
	tst	x19, #0x6
	b.ne	.LBB62_18
// %bb.5:                               // %"$8"
	adrp	x8, SymTab+8
	add	x8, x8, :lo12:SymTab+8
	add	x9, x8, #208                    // =208
	cmp	x9, x19
	ccmp	x19, x8, #0, hs
	b.hs	.LBB62_19
// %bb.6:                               // %"$12"
	bfi	x23, x21, #32, #32
	adrp	x21, env
	ldr	x8, [x21, :lo12:env]
	mov	x9, sp
	sub	x22, x9, #16                    // =16
	mov	sp, x22
	lsr	x10, x19, #32
	lsr	x11, x8, #32
	stp	w19, w10, [x9, #-16]
	stp	w8, w11, [x9, #-8]
	str	x22, [x21, :lo12:env]
	tbz	w19, #3, .LBB62_9
// %bb.7:                               // %"$14"
	ldurb	w8, [x19, #-8]
	tbz	w8, #3, .LBB62_9
// %bb.8:                               // %"$15"
	mov	x0, x20
	mov	x1, x19
	bl	dbTouch
.LBB62_9:                               // %"$16"
	ldp	w20, w8, [x23]
	bfi	x20, x8, #32, #32
	tst	x20, #0x6
	b.ne	.LBB62_13
// %bb.10:                              // %"$18"
	tbz	w20, #3, .LBB62_12
// %bb.11:                              // %"$21"
	ldp	w20, w8, [x20]
	bfi	x20, x8, #32, #32
	b	.LBB62_13
.LBB62_12:                              // %"$20"
	mov	x0, x20
	bl	evList
	mov	x20, x0
.LBB62_13:                              // %"$17"
	adrp	x1, SymTab+8
	add	x1, x1, :lo12:SymTab+8
	mov	x0, x20
	bl	cons
	ldp	w8, w9, [x19]
	bfi	x8, x9, #32, #32
	tst	x8, #0xf
	b.ne	.LBB62_17
	b	.LBB62_15
.LBB62_14:                              // %"$26"
                                        //   in Loop: Header=BB62_15 Depth=1
	ldp	w8, w9, [x8, #8]
	bfi	x8, x9, #32, #32
.LBB62_15:                              // %"$25"
                                        // =>This Inner Loop Header: Depth=1
	ldrb	w9, [x8, #8]
	tst	w9, #0xf
	b.eq	.LBB62_14
// %bb.16:                              // %"$27"
	add	x19, x8, #8                     // =8
.LBB62_17:                              // %"$24"
	lsr	x8, x0, #32
	stp	w0, w8, [x19]
	ldp	w9, w8, [x22, #8]
	bfi	x9, x8, #32, #32
	str	x9, [x21, :lo12:env]
	mov	x0, x20
	mov	sp, x29
	ldp	x20, x19, [sp, #48]             // 16-byte Folded Reload
	ldp	x22, x21, [sp, #32]             // 16-byte Folded Reload
	ldr	x23, [sp, #16]                  // 8-byte Folded Reload
	ldp	x29, x30, [sp], #64             // 16-byte Folded Reload
	ret
.LBB62_18:                              // %"$7"
	mov	x0, x20
	mov	x1, x19
	bl	varErr
.LBB62_19:                              // %"$11"
	mov	x0, x20
	mov	x1, x19
	bl	protErr
.Lfunc_end62:
	.size	_queue, .Lfunc_end62-_queue
	.cfi_endproc
                                        // -- End function
	.globl	_fifo                           // -- Begin function _fifo
	.p2align	4
	.type	_fifo,@function
_fifo:                                  // @_fifo
	.cfi_startproc
// %bb.0:                               // %"$1"
	stp	x29, x30, [sp, #-80]!           // 16-byte Folded Spill
	str	x25, [sp, #16]                  // 8-byte Folded Spill
	stp	x24, x23, [sp, #32]             // 16-byte Folded Spill
	stp	x22, x21, [sp, #48]             // 16-byte Folded Spill
	stp	x20, x19, [sp, #64]             // 16-byte Folded Spill
	mov	x29, sp
	.cfi_def_cfa w29, 80
	.cfi_offset w19, -8
	.cfi_offset w20, -16
	.cfi_offset w21, -24
	.cfi_offset w22, -32
	.cfi_offset w23, -40
	.cfi_offset w24, -48
	.cfi_offset w25, -64
	.cfi_offset w30, -72
	.cfi_offset w29, -80
	mov	x20, x0
	ldp	w9, w8, [x0, #8]
	bfi	x9, x8, #32, #32
	ldp	w19, w8, [x9]
	bfi	x19, x8, #32, #32
	ldp	w24, w21, [x9, #8]
	tst	x19, #0x6
	b.ne	.LBB63_4
// %bb.1:                               // %"$3"
	tbz	w19, #3, .LBB63_3
// %bb.2:                               // %"$6"
	ldp	w19, w8, [x19]
	bfi	x19, x8, #32, #32
	b	.LBB63_4
.LBB63_3:                               // %"$5"
	mov	x0, x19
	bl	evList
	mov	x19, x0
.LBB63_4:                               // %"$2"
	tst	x19, #0x6
	b.ne	.LBB63_30
// %bb.5:                               // %"$8"
	adrp	x8, SymTab+8
	add	x8, x8, :lo12:SymTab+8
	add	x9, x8, #208                    // =208
	cmp	x9, x19
	ccmp	x19, x8, #0, hs
	b.hs	.LBB63_31
// %bb.6:                               // %"$12"
	adrp	x22, env
	ldr	x8, [x22, :lo12:env]
	mov	x9, sp
	sub	x23, x9, #16                    // =16
	mov	sp, x23
	lsr	x10, x19, #32
	lsr	x11, x8, #32
	stp	w19, w10, [x9, #-16]
	stp	w8, w11, [x9, #-8]
	str	x23, [x22, :lo12:env]
	tbz	w19, #3, .LBB63_8
// %bb.7:                               // %"$14"
	ldurb	w8, [x19, #-8]
	ubfx	w8, w8, #3, #1
	bfi	x24, x21, #32, #32
	cbnz	w8, .LBB63_9
	b	.LBB63_10
.LBB63_8:
	mov	w8, wzr
	bfi	x24, x21, #32, #32
	cbz	w8, .LBB63_10
.LBB63_9:                               // %"$15"
	mov	x0, x20
	mov	x1, x19
	bl	dbTouch
.LBB63_10:                              // %"$16"
	ldp	w21, w8, [x19]
	bfi	x21, x8, #32, #32
	tst	x24, #0xf
	b.eq	.LBB63_14
// %bb.11:                              // %"$18"
	tst	x21, #0xf
	adrp	x20, SymTab+8
	add	x20, x20, :lo12:SymTab+8
	b.ne	.LBB63_29
// %bb.12:                              // %"$36"
	ldp	w8, w9, [x21, #8]
	bfi	x8, x9, #32, #32
	cmp	x8, x21
	b.ne	.LBB63_19
// %bb.13:                              // %"$39"
	lsr	x8, x20, #32
	stp	w20, w8, [x19]
	ldp	w20, w8, [x21]
	bfi	x20, x8, #32, #32
	b	.LBB63_29
.LBB63_14:                              // %"$19"
	ldp	w20, w8, [x24]
	bfi	x20, x8, #32, #32
	tst	x20, #0x6
	b.ne	.LBB63_17
// %bb.15:                              // %"$21"
	tbz	w20, #3, .LBB63_20
// %bb.16:                              // %"$24"
	ldp	w20, w8, [x20]
	bfi	x20, x8, #32, #32
.LBB63_17:                              // %"$20"
	tst	x21, #0xf
	b.eq	.LBB63_21
.LBB63_18:                              // %"$26"
	mov	x0, x20
	mov	w1, #10
	bl	cons
	mov	x21, x0
	b	.LBB63_24
.LBB63_19:                              // %"$38"
	ldp	w9, w10, [x8, #8]
	stp	w9, w10, [x21, #8]
	ldp	w20, w9, [x8]
	bfi	x20, x9, #32, #32
	b	.LBB63_29
.LBB63_20:                              // %"$23"
	mov	x0, x20
	bl	evList
	mov	x20, x0
	tst	x21, #0xf
	b.ne	.LBB63_18
.LBB63_21:                              // %"$25"
	ldp	w1, w8, [x21, #8]
	bfi	x1, x8, #32, #32
	mov	x0, x20
	bl	cons
	b	.LBB63_24
.LBB63_22:                              // %"$34"
                                        //   in Loop: Header=BB63_24 Depth=1
	mov	x0, x20
	bl	evList
	mov	x20, x0
.LBB63_23:                              // %"$31"
                                        //   in Loop: Header=BB63_24 Depth=1
	ldp	w1, w8, [x25, #8]
	bfi	x1, x8, #32, #32
	mov	x0, x20
	bl	cons
	mov	x21, x25
.LBB63_24:                              // %"$28.preheader"
                                        // =>This Inner Loop Header: Depth=1
	mov	x25, x0
	lsr	x8, x0, #32
	stp	w0, w8, [x21, #8]
	ldp	w24, w8, [x24, #8]
	bfi	x24, x8, #32, #32
	tst	x24, #0xf
	b.ne	.LBB63_28
// %bb.25:                              // %"$29"
                                        //   in Loop: Header=BB63_24 Depth=1
	ldp	w20, w8, [x24]
	bfi	x20, x8, #32, #32
	tst	x20, #0x6
	b.ne	.LBB63_23
// %bb.26:                              // %"$32"
                                        //   in Loop: Header=BB63_24 Depth=1
	tbz	w20, #3, .LBB63_22
// %bb.27:                              // %"$35"
                                        //   in Loop: Header=BB63_24 Depth=1
	ldp	w20, w8, [x20]
	bfi	x20, x8, #32, #32
	b	.LBB63_23
.LBB63_28:                              // %"$30"
	lsr	x8, x25, #32
	stp	w25, w8, [x19]
.LBB63_29:                              // %"$17"
	ldp	w9, w8, [x23, #8]
	bfi	x9, x8, #32, #32
	str	x9, [x22, :lo12:env]
	mov	x0, x20
	mov	sp, x29
	ldp	x20, x19, [sp, #64]             // 16-byte Folded Reload
	ldp	x22, x21, [sp, #48]             // 16-byte Folded Reload
	ldp	x24, x23, [sp, #32]             // 16-byte Folded Reload
	ldr	x25, [sp, #16]                  // 8-byte Folded Reload
	ldp	x29, x30, [sp], #80             // 16-byte Folded Reload
	ret
.LBB63_30:                              // %"$7"
	mov	x0, x20
	mov	x1, x19
	bl	varErr
.LBB63_31:                              // %"$11"
	mov	x0, x20
	mov	x1, x19
	bl	protErr
.Lfunc_end63:
	.size	_fifo, .Lfunc_end63-_fifo
	.cfi_endproc
                                        // -- End function
	.globl	_idx                            // -- Begin function _idx
	.p2align	4
	.type	_idx,@function
_idx:                                   // @_idx
	.cfi_startproc
// %bb.0:                               // %"$1"
	stp	x29, x30, [sp, #-64]!           // 16-byte Folded Spill
	stp	x24, x23, [sp, #16]             // 16-byte Folded Spill
	stp	x22, x21, [sp, #32]             // 16-byte Folded Spill
	stp	x20, x19, [sp, #48]             // 16-byte Folded Spill
	mov	x29, sp
	.cfi_def_cfa w29, 64
	.cfi_offset w19, -8
	.cfi_offset w20, -16
	.cfi_offset w21, -24
	.cfi_offset w22, -32
	.cfi_offset w23, -40
	.cfi_offset w24, -48
	.cfi_offset w30, -56
	.cfi_offset w29, -64
	mov	x20, x0
	ldp	w9, w8, [x0, #8]
	bfi	x9, x8, #32, #32
	ldp	w19, w8, [x9]
	bfi	x19, x8, #32, #32
	ldp	w24, w21, [x9, #8]
	tst	x19, #0x6
	b.ne	.LBB64_4
// %bb.1:                               // %"$3"
	tbz	w19, #3, .LBB64_3
// %bb.2:                               // %"$6"
	ldp	w19, w8, [x19]
	bfi	x19, x8, #32, #32
	b	.LBB64_4
.LBB64_3:                               // %"$5"
	mov	x0, x19
	bl	evList
	mov	x19, x0
.LBB64_4:                               // %"$2"
	tst	x19, #0x6
	b.ne	.LBB64_23
// %bb.5:                               // %"$8"
	adrp	x23, SymTab+8
	add	x23, x23, :lo12:SymTab+8
	add	x8, x23, #208                   // =208
	cmp	x8, x19
	ccmp	x19, x23, #0, hs
	b.hs	.LBB64_24
// %bb.6:                               // %"$12"
	bfi	x24, x21, #32, #32
	tst	x24, #0xf
	b.eq	.LBB64_8
// %bb.7:                               // %"$13"
	ldp	w0, w8, [x19]
	bfi	x0, x8, #32, #32
	adrp	x1, SymTab+8
	add	x1, x1, :lo12:SymTab+8
	bl	consTree
	b	.LBB64_22
.LBB64_8:                               // %"$14"
	adrp	x21, env
	ldr	x8, [x21, :lo12:env]
	mov	x9, sp
	sub	x22, x9, #16                    // =16
	mov	sp, x22
	lsr	x10, x19, #32
	stp	w19, w10, [x9, #-16]
	lsr	x10, x8, #32
	stp	w8, w10, [x9, #-8]
	str	x22, [x21, :lo12:env]
	ldp	w20, w8, [x24]
	bfi	x20, x8, #32, #32
	ldp	w24, w8, [x24, #8]
	bfi	x24, x8, #32, #32
	tst	x20, #0x6
	b.ne	.LBB64_12
// %bb.9:                               // %"$17"
	tbz	w20, #3, .LBB64_11
// %bb.10:                              // %"$20"
	ldp	w20, w8, [x20]
	bfi	x20, x8, #32, #32
	b	.LBB64_12
.LBB64_11:                              // %"$19"
	mov	x0, x20
	bl	evList
	mov	x20, x0
.LBB64_12:                              // %"$16"
	ldr	x8, [x21, :lo12:env]
	mov	x9, sp
	sub	x10, x9, #16                    // =16
	mov	sp, x10
	lsr	x11, x20, #32
	lsr	x12, x8, #32
	stp	w20, w11, [x9, #-16]
	stp	w8, w12, [x9, #-8]
	tst	x24, #0xf
	str	x10, [x21, :lo12:env]
	b.eq	.LBB64_14
// %bb.13:                              // %"$23"
	mov	x0, x19
	mov	x1, x20
	bl	idxGet
	b	.LBB64_21
.LBB64_14:                              // %"$22"
	ldp	w0, w8, [x24]
	bfi	x0, x8, #32, #32
	tst	x0, #0x6
	b.ne	.LBB64_17
// %bb.15:                              // %"$25"
	tbz	w0, #3, .LBB64_19
// %bb.16:                              // %"$28"
	ldp	w0, w8, [x0]
	bfi	x0, x8, #32, #32
.LBB64_17:                              // %"$24"
	cmp	x0, x23
	b.ne	.LBB64_20
.LBB64_18:                              // %"$30"
	mov	x0, x19
	mov	x1, x20
	bl	idxDel
	b	.LBB64_21
.LBB64_19:                              // %"$27"
	bl	evList
	cmp	x0, x23
	b.eq	.LBB64_18
.LBB64_20:                              // %"$29"
	mov	x0, x19
	mov	x1, x20
	bl	idxPut
.LBB64_21:                              // %"$21"
	ldp	w9, w8, [x22, #8]
	bfi	x9, x8, #32, #32
	str	x9, [x21, :lo12:env]
.LBB64_22:                              // %"$15"
	mov	sp, x29
	ldp	x20, x19, [sp, #48]             // 16-byte Folded Reload
	ldp	x22, x21, [sp, #32]             // 16-byte Folded Reload
	ldp	x24, x23, [sp, #16]             // 16-byte Folded Reload
	ldp	x29, x30, [sp], #64             // 16-byte Folded Reload
	ret
.LBB64_23:                              // %"$7"
	mov	x0, x20
	mov	x1, x19
	bl	varErr
.LBB64_24:                              // %"$11"
	mov	x0, x20
	mov	x1, x19
	bl	protErr
.Lfunc_end64:
	.size	_idx, .Lfunc_end64-_idx
	.cfi_endproc
                                        // -- End function
	.globl	_lup                            // -- Begin function _lup
	.p2align	4
	.type	_lup,@function
_lup:                                   // @_lup
	.cfi_startproc
// %bb.0:                               // %"$1"
	stp	x29, x30, [sp, #-96]!           // 16-byte Folded Spill
	stp	x28, x27, [sp, #16]             // 16-byte Folded Spill
	stp	x26, x25, [sp, #32]             // 16-byte Folded Spill
	stp	x24, x23, [sp, #48]             // 16-byte Folded Spill
	stp	x22, x21, [sp, #64]             // 16-byte Folded Spill
	stp	x20, x19, [sp, #80]             // 16-byte Folded Spill
	mov	x29, sp
	.cfi_def_cfa w29, 96
	.cfi_offset w19, -8
	.cfi_offset w20, -16
	.cfi_offset w21, -24
	.cfi_offset w22, -32
	.cfi_offset w23, -40
	.cfi_offset w24, -48
	.cfi_offset w25, -56
	.cfi_offset w26, -64
	.cfi_offset w27, -72
	.cfi_offset w28, -80
	.cfi_offset w30, -88
	.cfi_offset w29, -96
	ldp	w9, w8, [x0, #8]
	bfi	x9, x8, #32, #32
	ldp	w19, w8, [x9]
	bfi	x19, x8, #32, #32
	ldp	w21, w20, [x9, #8]
	tst	x19, #0x6
	b.ne	.LBB65_4
// %bb.1:                               // %"$3"
	tbz	w19, #3, .LBB65_3
// %bb.2:                               // %"$6"
	ldp	w19, w8, [x19]
	bfi	x19, x8, #32, #32
	b	.LBB65_4
.LBB65_3:                               // %"$5"
	mov	x0, x19
	bl	evList
	mov	x19, x0
.LBB65_4:                               // %"$2"
	adrp	x24, env
	ldr	x8, [x24, :lo12:env]
	mov	x9, sp
	sub	x25, x9, #16                    // =16
	mov	sp, x25
	lsr	x22, x19, #32
	lsr	x10, x8, #32
	stp	w19, w22, [x9, #-16]
	stp	w8, w10, [x9, #-8]
	tst	x19, #0xf
	str	x25, [x24, :lo12:env]
	b.ne	.LBB65_19
// %bb.5:                               // %"$8"
	bfi	x21, x20, #32, #32
	ldp	w20, w8, [x21]
	bfi	x20, x8, #32, #32
	ldp	w21, w8, [x21, #8]
	bfi	x21, x8, #32, #32
	tst	x20, #0x6
	b.ne	.LBB65_8
// %bb.6:                               // %"$11"
	tbz	w20, #3, .LBB65_21
// %bb.7:                               // %"$14"
	ldp	w20, w8, [x20]
	bfi	x20, x8, #32, #32
.LBB65_8:                               // %"$10"
	tst	x21, #0xf
	b.eq	.LBB65_22
.LBB65_9:                               // %"$18.preheader"
	adrp	x22, SymTab+216
	add	x22, x22, :lo12:SymTab+216
	adrp	x21, SymTab+8
	add	x21, x21, :lo12:SymTab+8
	b	.LBB65_12
.LBB65_10:                              // %"$21"
                                        //   in Loop: Header=BB65_12 Depth=1
	ldp	w8, w9, [x19, #8]
	bfi	x8, x9, #32, #32
.LBB65_11:                              // %"$19"
                                        //   in Loop: Header=BB65_12 Depth=1
	ldp	w19, w9, [x8]
	bfi	x19, x9, #32, #32
	tst	x19, #0xf
	b.ne	.LBB65_18
.LBB65_12:                              // %"$18"
                                        // =>This Inner Loop Header: Depth=1
	ldp	w8, w9, [x19]
	bfi	x8, x9, #32, #32
	cmp	x8, x22
	b.eq	.LBB65_10
// %bb.13:                              // %"$20"
                                        //   in Loop: Header=BB65_12 Depth=1
	tst	x8, #0xf
	b.eq	.LBB65_15
// %bb.14:                              // %"$23"
                                        //   in Loop: Header=BB65_12 Depth=1
	ldp	w9, w8, [x19, #8]
	bfi	x9, x8, #32, #32
	add	x8, x9, #8                      // =8
	b	.LBB65_11
.LBB65_15:                              // %"$22"
                                        //   in Loop: Header=BB65_12 Depth=1
	ldp	w0, w9, [x8]
	bfi	x0, x9, #32, #32
	mov	x1, x20
	bl	compare
	cbz	x0, .LBB65_25
// %bb.16:                              // %"$24"
                                        //   in Loop: Header=BB65_12 Depth=1
	ldp	w8, w9, [x19, #8]
	bfi	x8, x9, #32, #32
	tbz	x0, #63, .LBB65_11
// %bb.17:                              // %"$27"
                                        //   in Loop: Header=BB65_12 Depth=1
	add	x8, x8, #8                      // =8
	b	.LBB65_11
.LBB65_18:
	mov	x19, x21
.LBB65_19:                              // %"$9"
	ldp	w9, w8, [x25, #8]
	bfi	x9, x8, #32, #32
	str	x9, [x24, :lo12:env]
	mov	x0, x19
.LBB65_20:                              // %"$56"
	mov	sp, x29
	ldp	x20, x19, [sp, #80]             // 16-byte Folded Reload
	ldp	x22, x21, [sp, #64]             // 16-byte Folded Reload
	ldp	x24, x23, [sp, #48]             // 16-byte Folded Reload
	ldp	x26, x25, [sp, #32]             // 16-byte Folded Reload
	ldp	x28, x27, [sp, #16]             // 16-byte Folded Reload
	ldp	x29, x30, [sp], #96             // 16-byte Folded Reload
	ret
.LBB65_21:                              // %"$13"
	mov	x0, x20
	bl	evList
	mov	x20, x0
	tst	x21, #0xf
	b.ne	.LBB65_9
.LBB65_22:                              // %"$16"
	ldr	x8, [x24, :lo12:env]
	mov	x9, sp
	sub	x10, x9, #16                    // =16
	mov	sp, x10
	lsr	x11, x20, #32
	stp	w20, w11, [x9, #-16]
	lsr	x11, x8, #32
	stp	w8, w11, [x9, #-8]
	str	x10, [x24, :lo12:env]
	ldp	w21, w8, [x21]
	bfi	x21, x8, #32, #32
	tst	x21, #0x6
	b.ne	.LBB65_27
// %bb.23:                              // %"$33"
	tbz	w21, #3, .LBB65_26
// %bb.24:                              // %"$36"
	ldp	w21, w8, [x21]
	bfi	x21, x8, #32, #32
	b	.LBB65_27
.LBB65_25:                              // %"$26"
	ldp	w19, w8, [x19]
	bfi	x19, x8, #32, #32
	b	.LBB65_19
.LBB65_26:                              // %"$35"
	mov	x0, x21
	bl	evList
	mov	x21, x0
.LBB65_27:                              // %"$32"
	adrp	x8, env
	add	x8, x8, :lo12:env
	ldr	x9, [x8]
	mov	x10, sp
	sub	x11, x10, #16                   // =16
	mov	sp, x11
	lsr	x12, x21, #32
	lsr	x13, x9, #32
	stp	w21, w12, [x10, #-16]
	stp	w9, w13, [x10, #-8]
	str	x11, [x8]
	mov	x9, sp
	sub	x26, x9, #16                    // =16
	mov	sp, x26
	stp	w19, w22, [x9, #-16]
	ldr	x10, [x8]
	lsr	x11, x10, #32
	stp	w10, w11, [x9, #-8]
	str	x26, [x8]
	mov	x9, sp
	sub	x27, x9, #16                    // =16
	mov	sp, x27
	mov	x10, x26
	adrp	x22, SymTab+8
	add	x22, x22, :lo12:SymTab+8
	mov	w11, #10
	stp	w11, wzr, [x9, #-16]
	lsr	x11, x10, #32
	stp	w10, w11, [x9, #-8]
	mov	x9, x27
.LBB65_28:                              // %"$38"
                                        // =>This Loop Header: Depth=1
                                        //     Child Loop BB65_36 Depth 2
                                        //       Child Loop BB65_42 Depth 3
	lsr	x10, x9, #32
	stp	w9, w10, [x8]
	ldp	w23, w8, [x19, #8]
	bfi	x23, x8, #32, #32
	ldp	w28, w8, [x23, #8]
	bfi	x28, x8, #32, #32
	tst	x28, #0xf
	b.ne	.LBB65_36
// %bb.29:                              // %"$39"
                                        //   in Loop: Header=BB65_28 Depth=1
	ldp	w8, w9, [x19]
	bfi	x8, x9, #32, #32
	adrp	x9, SymTab+216
	add	x9, x9, :lo12:SymTab+216
	cmp	x8, x9
	b.eq	.LBB65_36
// %bb.30:                              // %"$41"
                                        //   in Loop: Header=BB65_28 Depth=1
	tst	x8, #0xf
	b.eq	.LBB65_32
// %bb.31:                              //   in Loop: Header=BB65_28 Depth=1
	mov	w8, wzr
	b	.LBB65_33
.LBB65_32:                              // %"$43"
                                        //   in Loop: Header=BB65_28 Depth=1
	ldp	w0, w9, [x8]
	bfi	x0, x9, #32, #32
	mov	x1, x21
	bl	compare
	cmp	x0, #0                          // =0
	cset	w8, gt
.LBB65_33:                              // %"$42"
                                        //   in Loop: Header=BB65_28 Depth=1
	tbnz	w8, #0, .LBB65_36
// %bb.34:                              // %"$44"
                                        //   in Loop: Header=BB65_28 Depth=1
	ldp	w9, w10, [x27]
	mov	x8, x27
	stp	w9, w10, [x23, #8]
	mov	x9, x19
	mov	x19, x28
	b	.LBB65_28
.LBB65_35:                              // %"$60"
                                        //   in Loop: Header=BB65_36 Depth=2
	ldp	w11, w10, [x8, #8]
	bfi	x11, x10, #32, #32
	ldr	w10, [x11, #8]!
	ldr	w12, [x11, #4]
	stp	w10, w12, [x27]
	stp	w19, w9, [x11]
	mov	x19, x8
.LBB65_36:                              // %"$45"
                                        //   Parent Loop BB65_28 Depth=1
                                        // =>  This Loop Header: Depth=2
                                        //       Child Loop BB65_42 Depth 3
	lsr	x28, x19, #32
	stp	w19, w28, [x26]
	ldp	w23, w8, [x19]
	bfi	x23, x8, #32, #32
	tst	x23, #0xf
	b.eq	.LBB65_38
// %bb.37:                              //   in Loop: Header=BB65_36 Depth=2
	mov	w8, wzr
	tbz	w8, #0, .LBB65_42
	b	.LBB65_39
.LBB65_38:                              // %"$47"
                                        //   in Loop: Header=BB65_36 Depth=2
	ldp	w0, w8, [x23]
	bfi	x0, x8, #32, #32
	mov	x1, x20
	bl	compare
	lsr	x8, x0, #63
	eor	w8, w8, #0x1
	tbz	w8, #0, .LBB65_42
.LBB65_39:                              // %"$48"
                                        //   in Loop: Header=BB65_36 Depth=2
	ldp	w0, w8, [x23]
	bfi	x0, x8, #32, #32
	mov	x1, x21
	bl	compare
	cmp	x0, #0                          // =0
	b.gt	.LBB65_41
// %bb.40:                              // %"$50"
                                        //   in Loop: Header=BB65_36 Depth=2
	mov	x0, x23
	mov	x1, x22
	bl	cons
	mov	x22, x0
.LBB65_41:                              // %"$51"
                                        //   in Loop: Header=BB65_36 Depth=2
	ldp	w8, w9, [x19, #8]
	bfi	x8, x9, #32, #32
	ldp	w9, w10, [x8]
	bfi	x9, x10, #32, #32
	tst	x9, #0xf
	b.eq	.LBB65_45
.LBB65_42:                              // %"$55"
                                        //   Parent Loop BB65_28 Depth=1
                                        //     Parent Loop BB65_36 Depth=2
                                        // =>    This Inner Loop Header: Depth=3
	ldp	w8, w9, [x27]
	bfi	x8, x9, #32, #32
	cmp	x8, #10                         // =10
	b.eq	.LBB65_46
// %bb.43:                              // %"$57"
                                        //   in Loop: Header=BB65_42 Depth=3
	lsr	x9, x19, #32
	tbz	w8, #3, .LBB65_35
// %bb.44:                              // %"$58"
                                        //   in Loop: Header=BB65_42 Depth=3
	and	x10, x8, #0xfffffffffffffff7
	ldp	w12, w11, [x10, #8]
	bfi	x12, x11, #32, #32
	ldp	w11, w13, [x12]
	stp	w11, w13, [x27]
	stp	w19, w9, [x12]
	lsr	x8, x8, #32
	stp	w10, w8, [x26]
	mov	x19, x10
	b	.LBB65_42
.LBB65_45:                              // %"$54"
                                        //   in Loop: Header=BB65_28 Depth=1
	ldp	w10, w11, [x27]
	stp	w10, w11, [x8]
	orr	w8, w19, #0x8
	stp	w8, w28, [x27]
	mov	x8, x26
	mov	x19, x9
	b	.LBB65_28
.LBB65_46:                              // %"$56"
	ldp	w9, w8, [x25, #8]
	bfi	x9, x8, #32, #32
	str	x9, [x24, :lo12:env]
	mov	x0, x22
	b	.LBB65_20
.Lfunc_end65:
	.size	_lup, .Lfunc_end65-_lup
	.cfi_endproc
                                        // -- End function
	.globl	_put                            // -- Begin function _put
	.p2align	4
	.type	_put,@function
_put:                                   // @_put
	.cfi_startproc
// %bb.0:                               // %"$1"
	stp	x29, x30, [sp, #-80]!           // 16-byte Folded Spill
	str	x25, [sp, #16]                  // 8-byte Folded Spill
	stp	x24, x23, [sp, #32]             // 16-byte Folded Spill
	stp	x22, x21, [sp, #48]             // 16-byte Folded Spill
	stp	x20, x19, [sp, #64]             // 16-byte Folded Spill
	mov	x29, sp
	.cfi_def_cfa w29, 80
	.cfi_offset w19, -8
	.cfi_offset w20, -16
	.cfi_offset w21, -24
	.cfi_offset w22, -32
	.cfi_offset w23, -40
	.cfi_offset w24, -48
	.cfi_offset w25, -64
	.cfi_offset w30, -72
	.cfi_offset w29, -80
	mov	x19, x0
	ldp	w9, w8, [x0, #8]
	bfi	x9, x8, #32, #32
	ldp	w20, w8, [x9]
	bfi	x20, x8, #32, #32
	ldp	w22, w8, [x9, #8]
	bfi	x22, x8, #32, #32
	tst	x20, #0x6
	b.ne	.LBB66_4
// %bb.1:                               // %"$3"
	tbz	w20, #3, .LBB66_3
// %bb.2:                               // %"$6"
	ldp	w20, w8, [x20]
	bfi	x20, x8, #32, #32
	b	.LBB66_4
.LBB66_3:                               // %"$5"
	mov	x0, x20
	bl	evList
	mov	x20, x0
.LBB66_4:                               // %"$2"
	adrp	x8, env
	add	x8, x8, :lo12:env
	ldr	x9, [x8]
	mov	x10, sp
	sub	x23, x10, #16                   // =16
	mov	sp, x23
	lsr	x11, x20, #32
	lsr	x12, x9, #32
	stp	w20, w11, [x10, #-16]
	mov	x0, x23
	stp	w9, w12, [x10, #-8]
.LBB66_5:                               // %"$7"
                                        // =>This Inner Loop Header: Depth=1
	lsr	x9, x0, #32
	stp	w0, w9, [x8]
	ldp	w21, w8, [x22]
	bfi	x21, x8, #32, #32
	ldp	w22, w8, [x22, #8]
	bfi	x22, x8, #32, #32
	tst	x21, #0x6
	b.ne	.LBB66_9
// %bb.6:                               // %"$9"
                                        //   in Loop: Header=BB66_5 Depth=1
	tbz	w21, #3, .LBB66_8
// %bb.7:                               // %"$12"
                                        //   in Loop: Header=BB66_5 Depth=1
	ldp	w21, w8, [x21]
	bfi	x21, x8, #32, #32
	b	.LBB66_9
.LBB66_8:                               // %"$11"
                                        //   in Loop: Header=BB66_5 Depth=1
	mov	x0, x21
	bl	evList
	mov	x21, x0
.LBB66_9:                               // %"$8"
                                        //   in Loop: Header=BB66_5 Depth=1
	ldrb	w8, [x22, #8]
	tst	w8, #0xf
	b.ne	.LBB66_11
// %bb.10:                              // %"$13"
                                        //   in Loop: Header=BB66_5 Depth=1
	mov	x0, x19
	mov	x1, x20
	mov	x2, x21
	bl	getn
	mov	x8, x23
	mov	x20, x0
	b	.LBB66_5
.LBB66_11:                              // %"$14"
	tst	x20, #0x6
	b.ne	.LBB66_27
// %bb.12:                              // %"$16"
	mov	x8, sp
	sub	x9, x8, #16                     // =16
	mov	sp, x9
	lsr	x10, x21, #32
	stp	w21, w10, [x8, #-16]
	adrp	x24, env
	ldr	x10, [x24, :lo12:env]
	lsr	x11, x10, #32
	stp	w10, w11, [x8, #-8]
	str	x9, [x24, :lo12:env]
	ldp	w22, w8, [x22]
	bfi	x22, x8, #32, #32
	tst	x22, #0x6
	b.ne	.LBB66_15
// %bb.13:                              // %"$18"
	tbz	w22, #3, .LBB66_22
// %bb.14:                              // %"$21"
	ldp	w22, w8, [x22]
	bfi	x22, x8, #32, #32
.LBB66_15:                              // %"$17"
	tst	x20, #0xf
	b.eq	.LBB66_23
.LBB66_16:                              // %"$23"
	ldurb	w8, [x20, #-8]
	adrp	x25, SymTab+8
	add	x25, x25, :lo12:SymTab+8
	tbz	w8, #3, .LBB66_19
// %bb.17:                              // %"$25"
	mov	x0, x19
	mov	x1, x20
	cmp	x21, x25
	b.ne	.LBB66_24
// %bb.18:                              // %"$27"
	bl	dbFetch
.LBB66_19:                              // %"$26"
	cmp	x21, #2                         // =2
	b.ne	.LBB66_25
.LBB66_20:                              // %"$30"
	add	x8, x25, #208                   // =208
	cmp	x8, x20
	ccmp	x20, x25, #0, hs
	b.hs	.LBB66_28
// %bb.21:                              // %"$36"
	lsr	x8, x22, #32
	stp	w22, w8, [x20]
	b	.LBB66_26
.LBB66_22:                              // %"$20"
	mov	x0, x22
	bl	evList
	mov	x22, x0
	tst	x20, #0xf
	b.ne	.LBB66_16
.LBB66_23:                              // %"$22"
	mov	x0, x19
	mov	x1, x20
	mov	x2, x21
	mov	x3, x22
	bl	putn
	b	.LBB66_26
.LBB66_24:                              // %"$28"
	bl	dbTouch
	cmp	x21, #2                         // =2
	b.eq	.LBB66_20
.LBB66_25:                              // %"$31"
	mov	x0, x20
	mov	x1, x21
	mov	x2, x22
	bl	put
.LBB66_26:                              // %"$24"
	ldp	w9, w8, [x23, #8]
	bfi	x9, x8, #32, #32
	str	x9, [x24, :lo12:env]
	mov	x0, x22
	mov	sp, x29
	ldp	x20, x19, [sp, #64]             // 16-byte Folded Reload
	ldp	x22, x21, [sp, #48]             // 16-byte Folded Reload
	ldp	x24, x23, [sp, #32]             // 16-byte Folded Reload
	ldr	x25, [sp, #16]                  // 8-byte Folded Reload
	ldp	x29, x30, [sp], #80             // 16-byte Folded Reload
	ret
.LBB66_27:                              // %"$15"
	mov	x0, x19
	mov	x1, x20
	bl	argErr
.LBB66_28:                              // %"$35"
	mov	x0, x19
	mov	x1, x20
	bl	protErr
.Lfunc_end66:
	.size	_put, .Lfunc_end66-_put
	.cfi_endproc
                                        // -- End function
	.globl	_get                            // -- Begin function _get
	.p2align	4
	.type	_get,@function
_get:                                   // @_get
	.cfi_startproc
// %bb.0:                               // %"$1"
	stp	x29, x30, [sp, #-48]!           // 16-byte Folded Spill
	stp	x22, x21, [sp, #16]             // 16-byte Folded Spill
	stp	x20, x19, [sp, #32]             // 16-byte Folded Spill
	mov	x29, sp
	.cfi_def_cfa w29, 48
	.cfi_offset w19, -8
	.cfi_offset w20, -16
	.cfi_offset w21, -24
	.cfi_offset w22, -32
	.cfi_offset w30, -40
	.cfi_offset w29, -48
	mov	x19, x0
	ldp	w9, w8, [x0, #8]
	bfi	x9, x8, #32, #32
	ldp	w20, w8, [x9]
	bfi	x20, x8, #32, #32
	ldp	w21, w8, [x9, #8]
	bfi	x21, x8, #32, #32
	tst	x20, #0x6
	b.ne	.LBB67_3
// %bb.1:                               // %"$3"
	tbz	w20, #3, .LBB67_5
// %bb.2:                               // %"$6"
	ldp	w20, w8, [x20]
	bfi	x20, x8, #32, #32
.LBB67_3:                               // %"$2"
	tst	x21, #0xf
	b.eq	.LBB67_6
.LBB67_4:
	mov	x0, x20
	b	.LBB67_13
.LBB67_5:                               // %"$5"
	mov	x0, x20
	bl	evList
	mov	x20, x0
	tst	x21, #0xf
	b.ne	.LBB67_4
.LBB67_6:                               // %"$7"
	adrp	x8, env
	add	x8, x8, :lo12:env
	ldr	x9, [x8]
	mov	x10, sp
	sub	x22, x10, #16                   // =16
	mov	sp, x22
	lsr	x11, x20, #32
	lsr	x12, x9, #32
	stp	w20, w11, [x10, #-16]
	mov	x0, x22
	stp	w9, w12, [x10, #-8]
	b	.LBB67_9
.LBB67_7:                               // %"$13"
                                        //   in Loop: Header=BB67_9 Depth=1
	mov	x0, x2
	bl	evList
	mov	x2, x0
.LBB67_8:                               // %"$10"
                                        //   in Loop: Header=BB67_9 Depth=1
	mov	x0, x19
	mov	x1, x20
	bl	getn
	tst	x21, #0xf
	mov	x8, x22
	mov	x20, x0
	b.ne	.LBB67_12
.LBB67_9:                               // %"$9"
                                        // =>This Inner Loop Header: Depth=1
	lsr	x9, x0, #32
	stp	w0, w9, [x8]
	ldp	w2, w8, [x21]
	bfi	x2, x8, #32, #32
	ldp	w21, w8, [x21, #8]
	bfi	x21, x8, #32, #32
	tst	x2, #0x6
	b.ne	.LBB67_8
// %bb.10:                              // %"$11"
                                        //   in Loop: Header=BB67_9 Depth=1
	tbz	w2, #3, .LBB67_7
// %bb.11:                              // %"$14"
                                        //   in Loop: Header=BB67_9 Depth=1
	ldp	w2, w8, [x2]
	bfi	x2, x8, #32, #32
	b	.LBB67_8
.LBB67_12:                              // %"$16"
	ldp	w9, w8, [x22, #8]
	bfi	x9, x8, #32, #32
	adrp	x8, env
	str	x9, [x8, :lo12:env]
.LBB67_13:                              // %"$8"
	mov	sp, x29
	ldp	x20, x19, [sp, #32]             // 16-byte Folded Reload
	ldp	x22, x21, [sp, #16]             // 16-byte Folded Reload
	ldp	x29, x30, [sp], #48             // 16-byte Folded Reload
	ret
.Lfunc_end67:
	.size	_get, .Lfunc_end67-_get
	.cfi_endproc
                                        // -- End function
	.globl	_prop                           // -- Begin function _prop
	.p2align	4
	.type	_prop,@function
_prop:                                  // @_prop
	.cfi_startproc
// %bb.0:                               // %"$1"
	stp	x29, x30, [sp, #-64]!           // 16-byte Folded Spill
	str	x23, [sp, #16]                  // 8-byte Folded Spill
	stp	x22, x21, [sp, #32]             // 16-byte Folded Spill
	stp	x20, x19, [sp, #48]             // 16-byte Folded Spill
	mov	x29, sp
	.cfi_def_cfa w29, 64
	.cfi_offset w19, -8
	.cfi_offset w20, -16
	.cfi_offset w21, -24
	.cfi_offset w22, -32
	.cfi_offset w23, -48
	.cfi_offset w30, -56
	.cfi_offset w29, -64
	mov	x19, x0
	ldp	w9, w8, [x0, #8]
	bfi	x9, x8, #32, #32
	ldp	w20, w8, [x9]
	bfi	x20, x8, #32, #32
	ldp	w23, w8, [x9, #8]
	bfi	x23, x8, #32, #32
	tst	x20, #0x6
	b.ne	.LBB68_4
// %bb.1:                               // %"$3"
	tbz	w20, #3, .LBB68_3
// %bb.2:                               // %"$6"
	ldp	w20, w8, [x20]
	bfi	x20, x8, #32, #32
	b	.LBB68_4
.LBB68_3:                               // %"$5"
	mov	x0, x20
	bl	evList
	mov	x20, x0
.LBB68_4:                               // %"$2"
	adrp	x8, env
	add	x8, x8, :lo12:env
	ldr	x9, [x8]
	mov	x10, sp
	sub	x22, x10, #16                   // =16
	mov	sp, x22
	lsr	x11, x20, #32
	lsr	x12, x9, #32
	stp	w20, w11, [x10, #-16]
	mov	x0, x22
	stp	w9, w12, [x10, #-8]
.LBB68_5:                               // %"$7"
                                        // =>This Inner Loop Header: Depth=1
	lsr	x9, x0, #32
	stp	w0, w9, [x8]
	ldp	w21, w8, [x23]
	bfi	x21, x8, #32, #32
	ldp	w23, w8, [x23, #8]
	bfi	x23, x8, #32, #32
	tst	x21, #0x6
	b.ne	.LBB68_8
// %bb.6:                               // %"$9"
                                        //   in Loop: Header=BB68_5 Depth=1
	tbz	w21, #3, .LBB68_10
// %bb.7:                               // %"$12"
                                        //   in Loop: Header=BB68_5 Depth=1
	ldp	w21, w8, [x21]
	bfi	x21, x8, #32, #32
.LBB68_8:                               // %"$8"
                                        //   in Loop: Header=BB68_5 Depth=1
	tst	x23, #0xf
	b.ne	.LBB68_11
.LBB68_9:                               // %"$13"
                                        //   in Loop: Header=BB68_5 Depth=1
	mov	x0, x19
	mov	x1, x20
	mov	x2, x21
	bl	getn
	mov	x8, x22
	mov	x20, x0
	b	.LBB68_5
.LBB68_10:                              // %"$11"
                                        //   in Loop: Header=BB68_5 Depth=1
	mov	x0, x21
	bl	evList
	mov	x21, x0
	tst	x23, #0xf
	b.eq	.LBB68_9
.LBB68_11:                              // %"$14"
	eor	w8, w20, #0x8
	tst	x8, #0xe
	b.ne	.LBB68_17
// %bb.12:                              // %"$16"
	mov	x8, sp
	sub	x9, x8, #16                     // =16
	mov	sp, x9
	lsr	x10, x21, #32
	stp	w21, w10, [x8, #-16]
	adrp	x23, env
	ldr	x10, [x23, :lo12:env]
	lsr	x11, x10, #32
	stp	w10, w11, [x8, #-8]
	str	x9, [x23, :lo12:env]
	ldurb	w8, [x20, #-8]
	tbz	w8, #3, .LBB68_16
// %bb.13:                              // %"$17"
	adrp	x8, SymTab+8
	add	x8, x8, :lo12:SymTab+8
	mov	x0, x19
	mov	x1, x20
	cmp	x21, x8
	b.ne	.LBB68_15
// %bb.14:                              // %"$19"
	bl	dbFetch
	b	.LBB68_16
.LBB68_15:                              // %"$20"
	bl	dbTouch
.LBB68_16:                              // %"$18"
	mov	x0, x20
	mov	x1, x21
	bl	prop
	ldp	w9, w8, [x22, #8]
	bfi	x9, x8, #32, #32
	str	x9, [x23, :lo12:env]
	mov	sp, x29
	ldp	x20, x19, [sp, #48]             // 16-byte Folded Reload
	ldp	x22, x21, [sp, #32]             // 16-byte Folded Reload
	ldr	x23, [sp, #16]                  // 8-byte Folded Reload
	ldp	x29, x30, [sp], #64             // 16-byte Folded Reload
	ret
.LBB68_17:                              // %"$15"
	mov	x0, x19
	mov	x1, x20
	bl	symErr
.Lfunc_end68:
	.size	_prop, .Lfunc_end68-_prop
	.cfi_endproc
                                        // -- End function
	.globl	_semicol                        // -- Begin function _semicol
	.p2align	4
	.type	_semicol,@function
_semicol:                               // @_semicol
	.cfi_startproc
// %bb.0:                               // %"$1"
	stp	x29, x30, [sp, #-48]!           // 16-byte Folded Spill
	str	x21, [sp, #16]                  // 8-byte Folded Spill
	stp	x20, x19, [sp, #32]             // 16-byte Folded Spill
	mov	x29, sp
	.cfi_def_cfa w29, 48
	.cfi_offset w19, -8
	.cfi_offset w20, -16
	.cfi_offset w21, -32
	.cfi_offset w30, -40
	.cfi_offset w29, -48
	mov	x19, x0
	ldp	w9, w8, [x0, #8]
	bfi	x9, x8, #32, #32
	ldp	w1, w8, [x9]
	bfi	x1, x8, #32, #32
	ldp	w20, w8, [x9, #8]
	bfi	x20, x8, #32, #32
	tst	x1, #0x6
	b.ne	.LBB69_3
// %bb.1:                               // %"$3"
	tbz	w1, #3, .LBB69_5
// %bb.2:                               // %"$6"
	ldp	w1, w8, [x1]
	bfi	x1, x8, #32, #32
.LBB69_3:                               // %"$2"
	tst	x20, #0xf
	b.eq	.LBB69_6
.LBB69_4:
	mov	x0, x1
	b	.LBB69_9
.LBB69_5:                               // %"$5"
	mov	x0, x1
	bl	evList
	mov	x1, x0
	tst	x20, #0xf
	b.ne	.LBB69_4
.LBB69_6:                               // %"$7"
	adrp	x8, env
	add	x8, x8, :lo12:env
	ldr	x9, [x8]
	mov	x10, sp
	sub	x21, x10, #16                   // =16
	mov	sp, x21
	lsr	x11, x1, #32
	lsr	x12, x9, #32
	stp	w1, w11, [x10, #-16]
	mov	x0, x21
	stp	w9, w12, [x10, #-8]
.LBB69_7:                               // %"$9"
                                        // =>This Inner Loop Header: Depth=1
	lsr	x9, x0, #32
	stp	w0, w9, [x8]
	ldp	w2, w8, [x20]
	bfi	x2, x8, #32, #32
	ldp	w20, w8, [x20, #8]
	bfi	x20, x8, #32, #32
	mov	x0, x19
	bl	getn
	tst	x20, #0xf
	mov	x8, x21
	mov	x1, x0
	b.eq	.LBB69_7
// %bb.8:                               // %"$11"
	ldp	w9, w8, [x21, #8]
	bfi	x9, x8, #32, #32
	adrp	x8, env
	str	x9, [x8, :lo12:env]
.LBB69_9:                               // %"$8"
	mov	sp, x29
	ldp	x20, x19, [sp, #32]             // 16-byte Folded Reload
	ldr	x21, [sp, #16]                  // 8-byte Folded Reload
	ldp	x29, x30, [sp], #48             // 16-byte Folded Reload
	ret
.Lfunc_end69:
	.size	_semicol, .Lfunc_end69-_semicol
	.cfi_endproc
                                        // -- End function
	.globl	_setCol                         // -- Begin function _setCol
	.p2align	4
	.type	_setCol,@function
_setCol:                                // @_setCol
	.cfi_startproc
// %bb.0:                               // %"$1"
	stp	x30, x23, [sp, #-48]!           // 16-byte Folded Spill
	stp	x22, x21, [sp, #16]             // 16-byte Folded Spill
	stp	x20, x19, [sp, #32]             // 16-byte Folded Spill
	.cfi_def_cfa_offset 48
	.cfi_offset w19, -8
	.cfi_offset w20, -16
	.cfi_offset w21, -24
	.cfi_offset w22, -32
	.cfi_offset w23, -40
	.cfi_offset w30, -48
	mov	x19, x0
	ldp	w22, w8, [x0, #8]
	bfi	x22, x8, #32, #32
	adrp	x8, SymTab+424
	ldr	x20, [x8, :lo12:SymTab+424]
.LBB70_1:                               // %"$2"
                                        // =>This Inner Loop Header: Depth=1
	ldp	w21, w8, [x22]
	bfi	x21, x8, #32, #32
	ldp	w22, w8, [x22, #8]
	bfi	x22, x8, #32, #32
	ldrb	w8, [x22, #8]
	tst	w8, #0xf
	b.ne	.LBB70_3
// %bb.2:                               // %"$3"
                                        //   in Loop: Header=BB70_1 Depth=1
	mov	x0, x19
	mov	x1, x20
	mov	x2, x21
	bl	getn
	mov	x20, x0
	b	.LBB70_1
.LBB70_3:                               // %"$4"
	tst	x20, #0x6
	b.ne	.LBB70_19
// %bb.4:                               // %"$6"
	ldp	w22, w8, [x22]
	bfi	x22, x8, #32, #32
	tst	x22, #0x6
	b.ne	.LBB70_7
// %bb.5:                               // %"$8"
	tbz	w22, #3, .LBB70_14
// %bb.6:                               // %"$11"
	ldp	w22, w8, [x22]
	bfi	x22, x8, #32, #32
.LBB70_7:                               // %"$7"
	tst	x20, #0xf
	b.eq	.LBB70_15
.LBB70_8:                               // %"$13"
	ldurb	w8, [x20, #-8]
	adrp	x23, SymTab+8
	add	x23, x23, :lo12:SymTab+8
	tbz	w8, #3, .LBB70_11
// %bb.9:                               // %"$15"
	mov	x0, x19
	mov	x1, x20
	cmp	x21, x23
	b.ne	.LBB70_16
// %bb.10:                              // %"$17"
	bl	dbFetch
.LBB70_11:                              // %"$16"
	cmp	x21, #2                         // =2
	b.ne	.LBB70_17
.LBB70_12:                              // %"$20"
	add	x8, x23, #208                   // =208
	cmp	x8, x20
	ccmp	x20, x23, #0, hs
	b.hs	.LBB70_20
// %bb.13:                              // %"$26"
	lsr	x8, x22, #32
	stp	w22, w8, [x20]
	b	.LBB70_18
.LBB70_14:                              // %"$10"
	mov	x0, x22
	bl	evList
	mov	x22, x0
	tst	x20, #0xf
	b.ne	.LBB70_8
.LBB70_15:                              // %"$12"
	mov	x0, x19
	mov	x1, x20
	mov	x2, x21
	mov	x3, x22
	bl	putn
	b	.LBB70_18
.LBB70_16:                              // %"$18"
	bl	dbTouch
	cmp	x21, #2                         // =2
	b.eq	.LBB70_12
.LBB70_17:                              // %"$21"
	mov	x0, x20
	mov	x1, x21
	mov	x2, x22
	bl	put
.LBB70_18:                              // %"$14"
	mov	x0, x22
	ldp	x20, x19, [sp, #32]             // 16-byte Folded Reload
	ldp	x22, x21, [sp, #16]             // 16-byte Folded Reload
	ldp	x30, x23, [sp], #48             // 16-byte Folded Reload
	ret
.LBB70_19:                              // %"$5"
	mov	x0, x19
	mov	x1, x20
	bl	argErr
.LBB70_20:                              // %"$25"
	mov	x0, x19
	mov	x1, x20
	bl	protErr
.Lfunc_end70:
	.size	_setCol, .Lfunc_end70-_setCol
	.cfi_endproc
                                        // -- End function
	.globl	_col                            // -- Begin function _col
	.p2align	4
	.type	_col,@function
_col:                                   // @_col
	.cfi_startproc
// %bb.0:                               // %"$1"
	str	x30, [sp, #-32]!                // 8-byte Folded Spill
	stp	x20, x19, [sp, #16]             // 16-byte Folded Spill
	.cfi_def_cfa_offset 32
	.cfi_offset w19, -8
	.cfi_offset w20, -16
	.cfi_offset w30, -32
	mov	x19, x0
	ldp	w20, w8, [x0, #8]
	bfi	x20, x8, #32, #32
	adrp	x8, SymTab+424
	ldr	x1, [x8, :lo12:SymTab+424]
.LBB71_1:                               // %"$2"
                                        // =>This Inner Loop Header: Depth=1
	ldp	w2, w8, [x20]
	bfi	x2, x8, #32, #32
	ldp	w20, w8, [x20, #8]
	bfi	x20, x8, #32, #32
	mov	x0, x19
	bl	getn
	mov	x1, x0
	tst	x20, #0xf
	b.eq	.LBB71_1
// %bb.2:                               // %"$4"
	mov	x0, x1
	ldp	x20, x19, [sp, #16]             // 16-byte Folded Reload
	ldr	x30, [sp], #32                  // 8-byte Folded Reload
	ret
.Lfunc_end71:
	.size	_col, .Lfunc_end71-_col
	.cfi_endproc
                                        // -- End function
	.globl	_propCol                        // -- Begin function _propCol
	.p2align	4
	.type	_propCol,@function
_propCol:                               // @_propCol
	.cfi_startproc
// %bb.0:                               // %"$1"
	str	x30, [sp, #-48]!                // 8-byte Folded Spill
	stp	x22, x21, [sp, #16]             // 16-byte Folded Spill
	stp	x20, x19, [sp, #32]             // 16-byte Folded Spill
	.cfi_def_cfa_offset 48
	.cfi_offset w19, -8
	.cfi_offset w20, -16
	.cfi_offset w21, -24
	.cfi_offset w22, -32
	.cfi_offset w30, -48
	mov	x19, x0
	ldp	w22, w8, [x0, #8]
	bfi	x22, x8, #32, #32
	adrp	x8, SymTab+424
	ldr	x20, [x8, :lo12:SymTab+424]
.LBB72_1:                               // %"$2"
                                        // =>This Inner Loop Header: Depth=1
	ldp	w21, w8, [x22]
	bfi	x21, x8, #32, #32
	ldp	w22, w8, [x22, #8]
	bfi	x22, x8, #32, #32
	tst	x22, #0xf
	b.ne	.LBB72_3
// %bb.2:                               // %"$3"
                                        //   in Loop: Header=BB72_1 Depth=1
	mov	x0, x19
	mov	x1, x20
	mov	x2, x21
	bl	getn
	mov	x20, x0
	b	.LBB72_1
.LBB72_3:                               // %"$4"
	eor	w8, w20, #0x8
	tst	x8, #0xe
	b.ne	.LBB72_9
// %bb.4:                               // %"$6"
	ldurb	w8, [x20, #-8]
	tbz	w8, #3, .LBB72_8
// %bb.5:                               // %"$7"
	adrp	x8, SymTab+8
	add	x8, x8, :lo12:SymTab+8
	mov	x0, x19
	mov	x1, x20
	cmp	x21, x8
	b.ne	.LBB72_7
// %bb.6:                               // %"$9"
	bl	dbFetch
	b	.LBB72_8
.LBB72_7:                               // %"$10"
	bl	dbTouch
.LBB72_8:                               // %"$8"
	mov	x0, x20
	mov	x1, x21
	bl	prop
	ldp	x20, x19, [sp, #32]             // 16-byte Folded Reload
	ldp	x22, x21, [sp, #16]             // 16-byte Folded Reload
	ldr	x30, [sp], #48                  // 8-byte Folded Reload
	ret
.LBB72_9:                               // %"$5"
	mov	x0, x19
	mov	x1, x20
	bl	symErr
.Lfunc_end72:
	.size	_propCol, .Lfunc_end72-_propCol
	.cfi_endproc
                                        // -- End function
	.globl	_putl                           // -- Begin function _putl
	.p2align	4
	.type	_putl,@function
_putl:                                  // @_putl
	.cfi_startproc
// %bb.0:                               // %"$1"
	stp	x29, x30, [sp, #-80]!           // 16-byte Folded Spill
	stp	x26, x25, [sp, #16]             // 16-byte Folded Spill
	stp	x24, x23, [sp, #32]             // 16-byte Folded Spill
	stp	x22, x21, [sp, #48]             // 16-byte Folded Spill
	stp	x20, x19, [sp, #64]             // 16-byte Folded Spill
	mov	x29, sp
	.cfi_def_cfa w29, 80
	.cfi_offset w19, -8
	.cfi_offset w20, -16
	.cfi_offset w21, -24
	.cfi_offset w22, -32
	.cfi_offset w23, -40
	.cfi_offset w24, -48
	.cfi_offset w25, -56
	.cfi_offset w26, -64
	.cfi_offset w30, -72
	.cfi_offset w29, -80
	mov	x21, x0
	ldp	w9, w8, [x0, #8]
	bfi	x9, x8, #32, #32
	ldp	w19, w8, [x9]
	bfi	x19, x8, #32, #32
	ldp	w23, w8, [x9, #8]
	bfi	x23, x8, #32, #32
	tst	x19, #0x6
	b.ne	.LBB73_4
// %bb.1:                               // %"$3"
	tbz	w19, #3, .LBB73_3
// %bb.2:                               // %"$6"
	ldp	w19, w8, [x19]
	bfi	x19, x8, #32, #32
	b	.LBB73_4
.LBB73_3:                               // %"$5"
	mov	x0, x19
	bl	evList
	mov	x19, x0
.LBB73_4:                               // %"$2"
	adrp	x8, env
	add	x8, x8, :lo12:env
	ldr	x9, [x8]
	mov	x10, sp
	sub	x22, x10, #16                   // =16
	mov	sp, x22
	lsr	x11, x19, #32
	lsr	x12, x9, #32
	stp	w19, w11, [x10, #-16]
	mov	x0, x22
	stp	w9, w12, [x10, #-8]
.LBB73_5:                               // %"$7"
                                        // =>This Inner Loop Header: Depth=1
	lsr	x9, x0, #32
	stp	w0, w9, [x8]
	ldp	w20, w8, [x23]
	bfi	x20, x8, #32, #32
	ldp	w23, w8, [x23, #8]
	bfi	x23, x8, #32, #32
	tst	x20, #0x6
	b.ne	.LBB73_8
// %bb.6:                               // %"$9"
                                        //   in Loop: Header=BB73_5 Depth=1
	tbz	w20, #3, .LBB73_10
// %bb.7:                               // %"$12"
                                        //   in Loop: Header=BB73_5 Depth=1
	ldp	w20, w8, [x20]
	bfi	x20, x8, #32, #32
.LBB73_8:                               // %"$8"
                                        //   in Loop: Header=BB73_5 Depth=1
	tst	x23, #0xf
	b.ne	.LBB73_11
.LBB73_9:                               // %"$13"
                                        //   in Loop: Header=BB73_5 Depth=1
	mov	x0, x21
	mov	x1, x19
	mov	x2, x20
	bl	getn
	mov	x8, x22
	mov	x19, x0
	b	.LBB73_5
.LBB73_10:                              // %"$11"
                                        //   in Loop: Header=BB73_5 Depth=1
	mov	x0, x20
	bl	evList
	mov	x20, x0
	tst	x23, #0xf
	b.eq	.LBB73_9
.LBB73_11:                              // %"$14"
	adrp	x23, env
	ldr	x8, [x23, :lo12:env]
	mov	x9, sp
	sub	x10, x9, #16                    // =16
	mov	sp, x10
	lsr	x11, x20, #32
	stp	w20, w11, [x9, #-16]
	lsr	x11, x8, #32
	stp	w8, w11, [x9, #-8]
	eor	w8, w19, #0x8
	tst	x8, #0xe
	str	x10, [x23, :lo12:env]
	b.ne	.LBB73_24
// %bb.12:                              // %"$16"
	ldp	w24, w8, [x19, #-8]
	bfi	x24, x8, #32, #32
	mov	x1, x24
	tbz	w24, #3, .LBB73_15
// %bb.13:                              // %"$17"
	mov	x0, x21
	mov	x1, x19
	bl	dbTouch
	ldp	w9, w8, [x19, #-8]
	bfi	x9, x8, #32, #32
	and	x1, x9, #0xfffffffffffffff7
	b	.LBB73_15
.LBB73_14:                              // %"$20"
                                        //   in Loop: Header=BB73_15 Depth=1
	ldp	w1, w8, [x1, #8]
	bfi	x1, x8, #32, #32
.LBB73_15:                              // %"$19"
                                        // =>This Inner Loop Header: Depth=1
	tst	x1, #0x6
	b.eq	.LBB73_14
// %bb.16:
	adrp	x21, SymTab+8
	add	x21, x21, :lo12:SymTab+8
	mov	x25, x20
	adrp	x26, SymTab+216
	add	x26, x26, :lo12:SymTab+216
	b	.LBB73_18
.LBB73_17:                              // %"$25"
                                        //   in Loop: Header=BB73_18 Depth=1
	bl	cons
	mov	x1, x0
.LBB73_18:                              // %"$22"
                                        // =>This Inner Loop Header: Depth=1
	tst	x25, #0xf
	b.ne	.LBB73_23
// %bb.19:                              // %"$23"
                                        //   in Loop: Header=BB73_18 Depth=1
	ldp	w0, w8, [x25]
	bfi	x0, x8, #32, #32
	ldp	w25, w8, [x25, #8]
	bfi	x25, x8, #32, #32
	tst	x0, #0xf
	b.ne	.LBB73_17
// %bb.20:                              // %"$26"
                                        //   in Loop: Header=BB73_18 Depth=1
	ldp	w9, w8, [x0]
	bfi	x9, x8, #32, #32
	cmp	x9, x21
	b.eq	.LBB73_18
// %bb.21:                              // %"$28"
                                        //   in Loop: Header=BB73_18 Depth=1
	ldp	w9, w8, [x0]
	bfi	x9, x8, #32, #32
	cmp	x9, x26
	b.ne	.LBB73_17
// %bb.22:                              // %"$30"
                                        //   in Loop: Header=BB73_18 Depth=1
	ldp	w0, w8, [x0, #8]
	bfi	x0, x8, #32, #32
	b	.LBB73_17
.LBB73_23:                              // %"$24"
	orr	x8, x1, #0x8
	tst	w24, #0x8
	csel	x8, x1, x8, eq
	lsr	x9, x8, #32
	stp	w8, w9, [x19, #-8]
	ldp	w9, w8, [x22, #8]
	bfi	x9, x8, #32, #32
	str	x9, [x23, :lo12:env]
	mov	x0, x20
	mov	sp, x29
	ldp	x20, x19, [sp, #64]             // 16-byte Folded Reload
	ldp	x22, x21, [sp, #48]             // 16-byte Folded Reload
	ldp	x24, x23, [sp, #32]             // 16-byte Folded Reload
	ldp	x26, x25, [sp, #16]             // 16-byte Folded Reload
	ldp	x29, x30, [sp], #80             // 16-byte Folded Reload
	ret
.LBB73_24:                              // %"$15"
	mov	x0, x21
	mov	x1, x19
	bl	symErr
.Lfunc_end73:
	.size	_putl, .Lfunc_end73-_putl
	.cfi_endproc
                                        // -- End function
	.globl	_getl                           // -- Begin function _getl
	.p2align	4
	.type	_getl,@function
_getl:                                  // @_getl
	.cfi_startproc
// %bb.0:                               // %"$1"
	stp	x29, x30, [sp, #-64]!           // 16-byte Folded Spill
	stp	x24, x23, [sp, #16]             // 16-byte Folded Spill
	stp	x22, x21, [sp, #32]             // 16-byte Folded Spill
	stp	x20, x19, [sp, #48]             // 16-byte Folded Spill
	mov	x29, sp
	.cfi_def_cfa w29, 64
	.cfi_offset w19, -8
	.cfi_offset w20, -16
	.cfi_offset w21, -24
	.cfi_offset w22, -32
	.cfi_offset w23, -40
	.cfi_offset w24, -48
	.cfi_offset w30, -56
	.cfi_offset w29, -64
	mov	x19, x0
	ldp	w22, w8, [x0, #8]
	bfi	x22, x8, #32, #32
	ldp	w20, w8, [x22]
	bfi	x20, x8, #32, #32
	tst	x20, #0x6
	b.ne	.LBB74_4
// %bb.1:                               // %"$3"
	tbz	w20, #3, .LBB74_3
// %bb.2:                               // %"$6"
	ldp	w20, w8, [x20]
	bfi	x20, x8, #32, #32
	b	.LBB74_4
.LBB74_3:                               // %"$5"
	mov	x0, x20
	bl	evList
	mov	x20, x0
.LBB74_4:                               // %"$2"
	adrp	x8, env
	add	x8, x8, :lo12:env
	ldr	x9, [x8]
	mov	x10, sp
	sub	x21, x10, #16                   // =16
	mov	sp, x21
	lsr	x11, x20, #32
	lsr	x12, x9, #32
	stp	w20, w11, [x10, #-16]
	mov	x0, x21
	stp	w9, w12, [x10, #-8]
	b	.LBB74_7
.LBB74_5:                               // %"$13"
                                        //   in Loop: Header=BB74_7 Depth=1
	mov	x0, x2
	bl	evList
	mov	x2, x0
.LBB74_6:                               // %"$10"
                                        //   in Loop: Header=BB74_7 Depth=1
	mov	x0, x19
	mov	x1, x20
	bl	getn
	mov	x8, x21
	mov	x20, x0
.LBB74_7:                               // %"$7"
                                        // =>This Inner Loop Header: Depth=1
	lsr	x9, x0, #32
	stp	w0, w9, [x8]
	ldp	w22, w8, [x22, #8]
	bfi	x22, x8, #32, #32
	tst	x22, #0xf
	b.ne	.LBB74_11
// %bb.8:                               // %"$8"
                                        //   in Loop: Header=BB74_7 Depth=1
	ldp	w2, w8, [x22]
	bfi	x2, x8, #32, #32
	tst	x2, #0x6
	b.ne	.LBB74_6
// %bb.9:                               // %"$11"
                                        //   in Loop: Header=BB74_7 Depth=1
	tbz	w2, #3, .LBB74_5
// %bb.10:                              // %"$14"
                                        //   in Loop: Header=BB74_7 Depth=1
	ldp	w2, w8, [x2]
	bfi	x2, x8, #32, #32
	b	.LBB74_6
.LBB74_11:                              // %"$9"
	eor	w8, w20, #0x8
	tst	x8, #0xe
	b.ne	.LBB74_20
// %bb.12:                              // %"$16"
	ldp	w23, w8, [x20, #-8]
	bfi	x23, x8, #32, #32
	tbz	w23, #3, .LBB74_14
// %bb.13:                              // %"$17"
	mov	x0, x19
	mov	x1, x20
	bl	dbFetch
	ldp	w9, w8, [x20, #-8]
	bfi	x9, x8, #32, #32
	and	x23, x9, #0xfffffffffffffff7
.LBB74_14:                              // %"$18"
	tst	x23, #0x6
	adrp	x22, env
	b.eq	.LBB74_17
// %bb.15:
	adrp	x19, SymTab+8
	add	x19, x19, :lo12:SymTab+8
.LBB74_16:                              // %"$21"
	ldp	w9, w8, [x21, #8]
	bfi	x9, x8, #32, #32
	str	x9, [x22, :lo12:env]
	mov	x0, x19
	mov	sp, x29
	ldp	x20, x19, [sp, #48]             // 16-byte Folded Reload
	ldp	x22, x21, [sp, #32]             // 16-byte Folded Reload
	ldp	x24, x23, [sp, #16]             // 16-byte Folded Reload
	ldp	x29, x30, [sp], #64             // 16-byte Folded Reload
	ret
.LBB74_17:                              // %"$20"
	ldp	w0, w8, [x23]
	bfi	x0, x8, #32, #32
	adrp	x20, SymTab+8
	add	x20, x20, :lo12:SymTab+8
	mov	x1, x20
	bl	cons
	mov	x19, x0
	mov	x8, sp
	sub	x9, x8, #16                     // =16
	mov	sp, x9
	lsr	x10, x0, #32
	stp	w19, w10, [x8, #-16]
	ldr	x10, [x22, :lo12:env]
	lsr	x11, x10, #32
	stp	w10, w11, [x8, #-8]
	str	x9, [x22, :lo12:env]
.LBB74_18:                              // %"$22"
                                        // =>This Inner Loop Header: Depth=1
	mov	x24, x0
	ldp	w23, w8, [x23, #8]
	bfi	x23, x8, #32, #32
	tst	x23, #0xf
	b.ne	.LBB74_16
// %bb.19:                              // %"$23"
                                        //   in Loop: Header=BB74_18 Depth=1
	ldp	w0, w8, [x23]
	bfi	x0, x8, #32, #32
	mov	x1, x20
	bl	cons
	lsr	x8, x0, #32
	stp	w0, w8, [x24, #8]
	b	.LBB74_18
.LBB74_20:                              // %"$15"
	mov	x0, x19
	mov	x1, x20
	bl	symErr
.Lfunc_end74:
	.size	_getl, .Lfunc_end74-_getl
	.cfi_endproc
                                        // -- End function
	.globl	_wipe                           // -- Begin function _wipe
	.p2align	4
	.type	_wipe,@function
_wipe:                                  // @_wipe
	.cfi_startproc
// %bb.0:                               // %"$1"
	stp	x30, x21, [sp, #-32]!           // 16-byte Folded Spill
	stp	x20, x19, [sp, #16]             // 16-byte Folded Spill
	.cfi_def_cfa_offset 32
	.cfi_offset w19, -8
	.cfi_offset w20, -16
	.cfi_offset w21, -24
	.cfi_offset w30, -32
	mov	x19, x0
	ldp	w9, w8, [x0, #8]
	bfi	x9, x8, #32, #32
	ldp	w20, w8, [x9]
	bfi	x20, x8, #32, #32
	tst	x20, #0x6
	b.ne	.LBB75_4
// %bb.1:                               // %"$3"
	tbz	w20, #3, .LBB75_3
// %bb.2:                               // %"$6"
	ldp	w20, w8, [x20]
	bfi	x20, x8, #32, #32
	b	.LBB75_4
.LBB75_3:                               // %"$5"
	mov	x0, x20
	bl	evList
	mov	x20, x0
.LBB75_4:                               // %"$2"
	adrp	x8, SymTab+8
	add	x8, x8, :lo12:SymTab+8
	cmp	x20, x8
	b.eq	.LBB75_9
// %bb.5:                               // %"$7"
	tst	x20, #0xf
	b.eq	.LBB75_7
// %bb.6:                               // %"$9"
	mov	x0, x19
	mov	x1, x20
	bl	wipe
	b	.LBB75_9
.LBB75_7:
	mov	x21, x20
.LBB75_8:                               // %"$12"
                                        // =>This Inner Loop Header: Depth=1
	ldp	w1, w8, [x21]
	bfi	x1, x8, #32, #32
	ldp	w21, w8, [x21, #8]
	bfi	x21, x8, #32, #32
	mov	x0, x19
	bl	wipe
	tst	x21, #0xf
	b.eq	.LBB75_8
.LBB75_9:                               // %"$8"
	mov	x0, x20
	ldp	x20, x19, [sp, #16]             // 16-byte Folded Reload
	ldp	x30, x21, [sp], #32             // 16-byte Folded Reload
	ret
.Lfunc_end75:
	.size	_wipe, .Lfunc_end75-_wipe
	.cfi_endproc
                                        // -- End function
	.globl	_meta                           // -- Begin function _meta
	.p2align	4
	.type	_meta,@function
_meta:                                  // @_meta
	.cfi_startproc
// %bb.0:                               // %"$1"
	stp	x29, x30, [sp, #-64]!           // 16-byte Folded Spill
	stp	x24, x23, [sp, #16]             // 16-byte Folded Spill
	stp	x22, x21, [sp, #32]             // 16-byte Folded Spill
	stp	x20, x19, [sp, #48]             // 16-byte Folded Spill
	mov	x29, sp
	.cfi_def_cfa w29, 64
	.cfi_offset w19, -8
	.cfi_offset w20, -16
	.cfi_offset w21, -24
	.cfi_offset w22, -32
	.cfi_offset w23, -40
	.cfi_offset w24, -48
	.cfi_offset w30, -56
	.cfi_offset w29, -64
	mov	x19, x0
	ldp	w9, w8, [x0, #8]
	bfi	x9, x8, #32, #32
	ldp	w20, w8, [x9]
	bfi	x20, x8, #32, #32
	ldp	w21, w24, [x9, #8]
	tst	x20, #0x6
	b.ne	.LBB76_4
// %bb.1:                               // %"$3"
	tbz	w20, #3, .LBB76_3
// %bb.2:                               // %"$6"
	ldp	w20, w8, [x20]
	bfi	x20, x8, #32, #32
	b	.LBB76_4
.LBB76_3:                               // %"$5"
	mov	x0, x20
	bl	evList
	mov	x20, x0
.LBB76_4:                               // %"$2"
	adrp	x22, env
	ldr	x8, [x22, :lo12:env]
	mov	x9, sp
	sub	x23, x9, #16                    // =16
	mov	sp, x23
	lsr	x10, x20, #32
	lsr	x11, x8, #32
	stp	w20, w10, [x9, #-16]
	stp	w8, w11, [x9, #-8]
	tst	x20, #0x6
